

Microchip Technology PIC18 LITE Macro Assembler V1.31 build 56723 
                                                                                               Sat Jun 28 18:04:16 2014

Microchip Technology Omniscient Code Generator (Lite mode) build 56723
     1                           	processor	18F2620
     2                           	fnconf	rparam,??,?,0
     3                           	opt	pw 120
     4                           	opt	lm
     5                           	psect	mediumconst,global,reloc=2,class=MEDIUMCONST,delta=1
     6                           	psect	cinit,global,reloc=2,class=CODE,delta=1
     7                           	psect	bssCOMRAM,global,class=COMRAM,space=1,delta=1
     8                           	psect	bssBIGRAM,global,class=BIGRAM,space=1,delta=1
     9                           	psect	cstackCOMRAM,global,class=COMRAM,space=1,delta=1
    10                           	psect	text0,global,reloc=2,class=CODE,delta=1
    11                           	psect	text1,global,reloc=2,class=CODE,delta=1
    12                           	psect	text2,global,reloc=2,class=CODE,delta=1
    13                           	psect	text3,global,reloc=2,class=CODE,delta=1
    14                           	psect	text4,global,reloc=2,class=CODE,delta=1
    15                           	psect	text5,global,reloc=2,class=CODE,delta=1
    16                           	psect	text6,global,reloc=2,class=CODE,delta=1
    17                           	psect	text7,global,reloc=2,class=CODE,delta=1
    18                           	psect	text8,global,reloc=2,class=CODE,delta=1
    19                           	psect	text9,global,reloc=2,class=CODE,delta=1
    20                           	psect	text10,global,reloc=2,class=CODE,delta=1
    21                           	psect	text11,global,reloc=2,class=CODE,delta=1
    22                           	psect	text12,global,reloc=2,class=CODE,delta=1
    23                           	psect	text13,global,reloc=2,class=CODE,delta=1
    24                           	psect	text14,global,reloc=2,class=CODE,delta=1
    25                           	psect	intsave_regs,global,class=BIGRAM,space=1,delta=1
    26                           	psect	rparam,global,class=COMRAM,space=1,delta=1
    27  0000                     
    28                           	psect	mediumconst
    29  00F99E                     __pmediumconst:
    30                           	opt stack 0
    31  00F99E  00                 	db	0
    32  00F99F                     _lcd_font:
    33                           	opt stack 0
    34  00F99F  00                 	db	0
    35  00F9A0  00                 	db	0
    36  00F9A1  00                 	db	0
    37  00F9A2  00                 	db	0
    38  00F9A3  00                 	db	0
    39  00F9A4  00                 	db	0
    40  00F9A5  00                 	db	0
    41  00F9A6  6F                 	db	111
    42  00F9A7  00                 	db	0
    43  00F9A8  00                 	db	0
    44  00F9A9  00                 	db	0
    45  00F9AA  07                 	db	7
    46  00F9AB  00                 	db	0
    47  00F9AC  07                 	db	7
    48  00F9AD  00                 	db	0
    49  00F9AE  14                 	db	20
    50  00F9AF  7F                 	db	127
    51  00F9B0  14                 	db	20
    52  00F9B1  7F                 	db	127
    53  00F9B2  14                 	db	20
    54  00F9B3  00                 	db	0
    55  00F9B4  07                 	db	7
    56  00F9B5  04                 	db	4
    57  00F9B6  1E                 	db	30
    58  00F9B7  00                 	db	0
    59  00F9B8  23                 	db	35
    60  00F9B9  13                 	db	19
    61  00F9BA  08                 	db	8
    62  00F9BB  64                 	db	100
    63  00F9BC  62                 	db	98
    64  00F9BD  36                 	db	54
    65  00F9BE  49                 	db	73
    66  00F9BF  56                 	db	86
    67  00F9C0  20                 	db	32
    68  00F9C1  50                 	db	80
    69  00F9C2  00                 	db	0
    70  00F9C3  00                 	db	0
    71  00F9C4  07                 	db	7
    72  00F9C5  00                 	db	0
    73  00F9C6  00                 	db	0
    74  00F9C7  00                 	db	0
    75  00F9C8  1C                 	db	28
    76  00F9C9  22                 	db	34
    77  00F9CA  41                 	db	65
    78  00F9CB  00                 	db	0
    79  00F9CC  00                 	db	0
    80  00F9CD  41                 	db	65
    81  00F9CE  22                 	db	34
    82  00F9CF  1C                 	db	28
    83  00F9D0  00                 	db	0
    84  00F9D1  14                 	db	20
    85  00F9D2  08                 	db	8
    86  00F9D3  3E                 	db	62
    87  00F9D4  08                 	db	8
    88  00F9D5  14                 	db	20
    89  00F9D6  08                 	db	8
    90  00F9D7  08                 	db	8
    91  00F9D8  3E                 	db	62
    92  00F9D9  08                 	db	8
    93  00F9DA  08                 	db	8
    94  00F9DB  00                 	db	0
    95  00F9DC  50                 	db	80
    96  00F9DD  30                 	db	48
    97  00F9DE  00                 	db	0
    98  00F9DF  00                 	db	0
    99  00F9E0  08                 	db	8
   100  00F9E1  08                 	db	8
   101  00F9E2  08                 	db	8
   102  00F9E3  08                 	db	8
   103  00F9E4  08                 	db	8
   104  00F9E5  00                 	db	0
   105  00F9E6  60                 	db	96
   106  00F9E7  60                 	db	96
   107  00F9E8  00                 	db	0
   108  00F9E9  00                 	db	0
   109  00F9EA  20                 	db	32
   110  00F9EB  10                 	db	16
   111  00F9EC  08                 	db	8
   112  00F9ED  04                 	db	4
   113  00F9EE  02                 	db	2
   114  00F9EF  3E                 	db	62
   115  00F9F0  51                 	db	81
   116  00F9F1  49                 	db	73
   117  00F9F2  45                 	db	69
   118  00F9F3  3E                 	db	62
   119  00F9F4  00                 	db	0
   120  00F9F5  42                 	db	66
   121  00F9F6  7F                 	db	127
   122  00F9F7  40                 	db	64
   123  00F9F8  00                 	db	0
   124  00F9F9  42                 	db	66
   125  00F9FA  61                 	db	97
   126  00F9FB  51                 	db	81
   127  00F9FC  49                 	db	73
   128  00F9FD  46                 	db	70
   129  00F9FE  21                 	db	33
   130  00F9FF  41                 	db	65
   131  00FA00  45                 	db	69
   132  00FA01  4B                 	db	75
   133  00FA02  31                 	db	49
   134  00FA03  18                 	db	24
   135  00FA04  14                 	db	20
   136  00FA05  12                 	db	18
   137  00FA06  7F                 	db	127
   138  00FA07  10                 	db	16
   139  00FA08  27                 	db	39
   140  00FA09  45                 	db	69
   141  00FA0A  45                 	db	69
   142  00FA0B  45                 	db	69
   143  00FA0C  39                 	db	57
   144  00FA0D  3C                 	db	60
   145  00FA0E  4A                 	db	74
   146  00FA0F  49                 	db	73
   147  00FA10  49                 	db	73
   148  00FA11  30                 	db	48
   149  00FA12  01                 	db	1
   150  00FA13  71                 	db	113
   151  00FA14  09                 	db	9
   152  00FA15  05                 	db	5
   153  00FA16  03                 	db	3
   154  00FA17  36                 	db	54
   155  00FA18  49                 	db	73
   156  00FA19  49                 	db	73
   157  00FA1A  49                 	db	73
   158  00FA1B  36                 	db	54
   159  00FA1C  06                 	db	6
   160  00FA1D  49                 	db	73
   161  00FA1E  49                 	db	73
   162  00FA1F  29                 	db	41
   163  00FA20  1E                 	db	30
   164  00FA21  00                 	db	0
   165  00FA22  36                 	db	54
   166  00FA23  36                 	db	54
   167  00FA24  00                 	db	0
   168  00FA25  00                 	db	0
   169  00FA26  00                 	db	0
   170  00FA27  56                 	db	86
   171  00FA28  36                 	db	54
   172  00FA29  00                 	db	0
   173  00FA2A  00                 	db	0
   174  00FA2B  08                 	db	8
   175  00FA2C  14                 	db	20
   176  00FA2D  22                 	db	34
   177  00FA2E  41                 	db	65
   178  00FA2F  00                 	db	0
   179  00FA30  14                 	db	20
   180  00FA31  14                 	db	20
   181  00FA32  14                 	db	20
   182  00FA33  14                 	db	20
   183  00FA34  14                 	db	20
   184  00FA35  00                 	db	0
   185  00FA36  41                 	db	65
   186  00FA37  22                 	db	34
   187  00FA38  14                 	db	20
   188  00FA39  08                 	db	8
   189  00FA3A  02                 	db	2
   190  00FA3B  01                 	db	1
   191  00FA3C  51                 	db	81
   192  00FA3D  09                 	db	9
   193  00FA3E  06                 	db	6
   194  00FA3F  3E                 	db	62
   195  00FA40  41                 	db	65
   196  00FA41  5D                 	db	93
   197  00FA42  49                 	db	73
   198  00FA43  4E                 	db	78
   199  00FA44  7E                 	db	126
   200  00FA45  09                 	db	9
   201  00FA46  09                 	db	9
   202  00FA47  09                 	db	9
   203  00FA48  7E                 	db	126
   204  00FA49  7F                 	db	127
   205  00FA4A  49                 	db	73
   206  00FA4B  49                 	db	73
   207  00FA4C  49                 	db	73
   208  00FA4D  36                 	db	54
   209  00FA4E  3E                 	db	62
   210  00FA4F  41                 	db	65
   211  00FA50  41                 	db	65
   212  00FA51  41                 	db	65
   213  00FA52  22                 	db	34
   214  00FA53  7F                 	db	127
   215  00FA54  41                 	db	65
   216  00FA55  41                 	db	65
   217  00FA56  41                 	db	65
   218  00FA57  3E                 	db	62
   219  00FA58  7F                 	db	127
   220  00FA59  49                 	db	73
   221  00FA5A  49                 	db	73
   222  00FA5B  49                 	db	73
   223  00FA5C  41                 	db	65
   224  00FA5D  7F                 	db	127
   225  00FA5E  09                 	db	9
   226  00FA5F  09                 	db	9
   227  00FA60  09                 	db	9
   228  00FA61  01                 	db	1
   229  00FA62  3E                 	db	62
   230  00FA63  41                 	db	65
   231  00FA64  49                 	db	73
   232  00FA65  49                 	db	73
   233  00FA66  7A                 	db	122
   234  00FA67  7F                 	db	127
   235  00FA68  08                 	db	8
   236  00FA69  08                 	db	8
   237  00FA6A  08                 	db	8
   238  00FA6B  7F                 	db	127
   239  00FA6C  00                 	db	0
   240  00FA6D  41                 	db	65
   241  00FA6E  7F                 	db	127
   242  00FA6F  41                 	db	65
   243  00FA70  00                 	db	0
   244  00FA71  20                 	db	32
   245  00FA72  40                 	db	64
   246  00FA73  41                 	db	65
   247  00FA74  3F                 	db	63
   248  00FA75  01                 	db	1
   249  00FA76  7F                 	db	127
   250  00FA77  08                 	db	8
   251  00FA78  14                 	db	20
   252  00FA79  22                 	db	34
   253  00FA7A  41                 	db	65
   254  00FA7B  7F                 	db	127
   255  00FA7C  40                 	db	64
   256  00FA7D  40                 	db	64
   257  00FA7E  40                 	db	64
   258  00FA7F  40                 	db	64
   259  00FA80  7F                 	db	127
   260  00FA81  02                 	db	2
   261  00FA82  0C                 	db	12
   262  00FA83  02                 	db	2
   263  00FA84  7F                 	db	127
   264  00FA85  7F                 	db	127
   265  00FA86  04                 	db	4
   266  00FA87  08                 	db	8
   267  00FA88  10                 	db	16
   268  00FA89  7F                 	db	127
   269  00FA8A  3E                 	db	62
   270  00FA8B  41                 	db	65
   271  00FA8C  41                 	db	65
   272  00FA8D  41                 	db	65
   273  00FA8E  3E                 	db	62
   274  00FA8F  7F                 	db	127
   275  00FA90  09                 	db	9
   276  00FA91  09                 	db	9
   277  00FA92  09                 	db	9
   278  00FA93  06                 	db	6
   279  00FA94  3E                 	db	62
   280  00FA95  41                 	db	65
   281  00FA96  51                 	db	81
   282  00FA97  21                 	db	33
   283  00FA98  5E                 	db	94
   284  00FA99  7F                 	db	127
   285  00FA9A  09                 	db	9
   286  00FA9B  19                 	db	25
   287  00FA9C  29                 	db	41
   288  00FA9D  46                 	db	70
   289  00FA9E  46                 	db	70
   290  00FA9F  49                 	db	73
   291  00FAA0  49                 	db	73
   292  00FAA1  49                 	db	73
   293  00FAA2  31                 	db	49
   294  00FAA3  01                 	db	1
   295  00FAA4  01                 	db	1
   296  00FAA5  7F                 	db	127
   297  00FAA6  01                 	db	1
   298  00FAA7  01                 	db	1
   299  00FAA8  3F                 	db	63
   300  00FAA9  40                 	db	64
   301  00FAAA  40                 	db	64
   302  00FAAB  40                 	db	64
   303  00FAAC  3F                 	db	63
   304  00FAAD  0F                 	db	15
   305  00FAAE  30                 	db	48
   306  00FAAF  40                 	db	64
   307  00FAB0  30                 	db	48
   308  00FAB1  0F                 	db	15
   309  00FAB2  3F                 	db	63
   310  00FAB3  40                 	db	64
   311  00FAB4  30                 	db	48
   312  00FAB5  40                 	db	64
   313  00FAB6  3F                 	db	63
   314  00FAB7  63                 	db	99
   315  00FAB8  14                 	db	20
   316  00FAB9  08                 	db	8
   317  00FABA  14                 	db	20
   318  00FABB  63                 	db	99
   319  00FABC  07                 	db	7
   320  00FABD  08                 	db	8
   321  00FABE  70                 	db	112
   322  00FABF  08                 	db	8
   323  00FAC0  07                 	db	7
   324  00FAC1  61                 	db	97
   325  00FAC2  51                 	db	81
   326  00FAC3  49                 	db	73
   327  00FAC4  45                 	db	69
   328  00FAC5  43                 	db	67
   329  00FAC6  3C                 	db	60
   330  00FAC7  4A                 	db	74
   331  00FAC8  49                 	db	73
   332  00FAC9  29                 	db	41
   333  00FACA  1E                 	db	30
   334  00FACB  02                 	db	2
   335  00FACC  04                 	db	4
   336  00FACD  08                 	db	8
   337  00FACE  10                 	db	16
   338  00FACF  20                 	db	32
   339  00FAD0  00                 	db	0
   340  00FAD1  41                 	db	65
   341  00FAD2  7F                 	db	127
   342  00FAD3  00                 	db	0
   343  00FAD4  00                 	db	0
   344  00FAD5  04                 	db	4
   345  00FAD6  02                 	db	2
   346  00FAD7  01                 	db	1
   347  00FAD8  02                 	db	2
   348  00FAD9  04                 	db	4
   349  00FADA  40                 	db	64
   350  00FADB  40                 	db	64
   351  00FADC  40                 	db	64
   352  00FADD  40                 	db	64
   353  00FADE  40                 	db	64
   354  00FADF  00                 	db	0
   355  00FAE0  00                 	db	0
   356  00FAE1  03                 	db	3
   357  00FAE2  04                 	db	4
   358  00FAE3  00                 	db	0
   359  00FAE4  20                 	db	32
   360  00FAE5  54                 	db	84
   361  00FAE6  54                 	db	84
   362  00FAE7  54                 	db	84
   363  00FAE8  78                 	db	120
   364  00FAE9  7F                 	db	127
   365  00FAEA  48                 	db	72
   366  00FAEB  44                 	db	68
   367  00FAEC  44                 	db	68
   368  00FAED  38                 	db	56
   369  00FAEE  38                 	db	56
   370  00FAEF  44                 	db	68
   371  00FAF0  44                 	db	68
   372  00FAF1  44                 	db	68
   373  00FAF2  20                 	db	32
   374  00FAF3  38                 	db	56
   375  00FAF4  44                 	db	68
   376  00FAF5  44                 	db	68
   377  00FAF6  48                 	db	72
   378  00FAF7  7F                 	db	127
   379  00FAF8  38                 	db	56
   380  00FAF9  54                 	db	84
   381  00FAFA  54                 	db	84
   382  00FAFB  54                 	db	84
   383  00FAFC  18                 	db	24
   384  00FAFD  08                 	db	8
   385  00FAFE  7E                 	db	126
   386  00FAFF  09                 	db	9
   387  00FB00  01                 	db	1
   388  00FB01  02                 	db	2
   389  00FB02  0C                 	db	12
   390  00FB03  52                 	db	82
   391  00FB04  52                 	db	82
   392  00FB05  52                 	db	82
   393  00FB06  3E                 	db	62
   394  00FB07  7F                 	db	127
   395  00FB08  08                 	db	8
   396  00FB09  04                 	db	4
   397  00FB0A  04                 	db	4
   398  00FB0B  78                 	db	120
   399  00FB0C  00                 	db	0
   400  00FB0D  44                 	db	68
   401  00FB0E  7D                 	db	125
   402  00FB0F  40                 	db	64
   403  00FB10  00                 	db	0
   404  00FB11  20                 	db	32
   405  00FB12  40                 	db	64
   406  00FB13  44                 	db	68
   407  00FB14  3D                 	db	61
   408  00FB15  00                 	db	0
   409  00FB16  00                 	db	0
   410  00FB17  7F                 	db	127
   411  00FB18  10                 	db	16
   412  00FB19  28                 	db	40
   413  00FB1A  44                 	db	68
   414  00FB1B  00                 	db	0
   415  00FB1C  41                 	db	65
   416  00FB1D  7F                 	db	127
   417  00FB1E  40                 	db	64
   418  00FB1F  00                 	db	0
   419  00FB20  7C                 	db	124
   420  00FB21  04                 	db	4
   421  00FB22  18                 	db	24
   422  00FB23  04                 	db	4
   423  00FB24  78                 	db	120
   424  00FB25  7C                 	db	124
   425  00FB26  08                 	db	8
   426  00FB27  04                 	db	4
   427  00FB28  04                 	db	4
   428  00FB29  78                 	db	120
   429  00FB2A  38                 	db	56
   430  00FB2B  44                 	db	68
   431  00FB2C  44                 	db	68
   432  00FB2D  44                 	db	68
   433  00FB2E  38                 	db	56
   434  00FB2F  7C                 	db	124
   435  00FB30  14                 	db	20
   436  00FB31  14                 	db	20
   437  00FB32  14                 	db	20
   438  00FB33  08                 	db	8
   439  00FB34  08                 	db	8
   440  00FB35  14                 	db	20
   441  00FB36  14                 	db	20
   442  00FB37  18                 	db	24
   443  00FB38  7C                 	db	124
   444  00FB39  7C                 	db	124
   445  00FB3A  08                 	db	8
   446  00FB3B  04                 	db	4
   447  00FB3C  04                 	db	4
   448  00FB3D  08                 	db	8
   449  00FB3E  48                 	db	72
   450  00FB3F  54                 	db	84
   451  00FB40  54                 	db	84
   452  00FB41  54                 	db	84
   453  00FB42  20                 	db	32
   454  00FB43  04                 	db	4
   455  00FB44  3F                 	db	63
   456  00FB45  44                 	db	68
   457  00FB46  40                 	db	64
   458  00FB47  20                 	db	32
   459  00FB48  3C                 	db	60
   460  00FB49  40                 	db	64
   461  00FB4A  40                 	db	64
   462  00FB4B  20                 	db	32
   463  00FB4C  7C                 	db	124
   464  00FB4D  1C                 	db	28
   465  00FB4E  20                 	db	32
   466  00FB4F  40                 	db	64
   467  00FB50  20                 	db	32
   468  00FB51  1C                 	db	28
   469  00FB52  3C                 	db	60
   470  00FB53  40                 	db	64
   471  00FB54  30                 	db	48
   472  00FB55  40                 	db	64
   473  00FB56  3C                 	db	60
   474  00FB57  44                 	db	68
   475  00FB58  28                 	db	40
   476  00FB59  10                 	db	16
   477  00FB5A  28                 	db	40
   478  00FB5B  44                 	db	68
   479  00FB5C  0C                 	db	12
   480  00FB5D  50                 	db	80
   481  00FB5E  50                 	db	80
   482  00FB5F  50                 	db	80
   483  00FB60  3C                 	db	60
   484  00FB61  44                 	db	68
   485  00FB62  64                 	db	100
   486  00FB63  54                 	db	84
   487  00FB64  4C                 	db	76
   488  00FB65  44                 	db	68
   489  00FB66  00                 	db	0
   490  00FB67  08                 	db	8
   491  00FB68  36                 	db	54
   492  00FB69  41                 	db	65
   493  00FB6A  41                 	db	65
   494  00FB6B  00                 	db	0
   495  00FB6C  00                 	db	0
   496  00FB6D  7F                 	db	127
   497  00FB6E  00                 	db	0
   498  00FB6F  00                 	db	0
   499  00FB70  41                 	db	65
   500  00FB71  41                 	db	65
   501  00FB72  36                 	db	54
   502  00FB73  08                 	db	8
   503  00FB74  00                 	db	0
   504  00FB75  04                 	db	4
   505  00FB76  02                 	db	2
   506  00FB77  04                 	db	4
   507  00FB78  08                 	db	8
   508  00FB79  04                 	db	4
   509  00FB7A  7F                 	db	127
   510  00FB7B  6B                 	db	107
   511  00FB7C  6B                 	db	107
   512  00FB7D  6B                 	db	107
   513  00FB7E  7F                 	db	127
   514  00FB7F                     __end_of_lcd_font:
   515                           	opt stack 0
   516  00FB7F                     _lcd_font_big:
   517                           	opt stack 0
   518  00FB7F  00                 	db	0
   519  00FB80  80                 	db	128
   520  00FB81  80                 	db	128
   521  00FB82  E0                 	db	224
   522  00FB83  E0                 	db	224
   523  00FB84  80                 	db	128
   524  00FB85  80                 	db	128
   525  00FB86  00                 	db	0
   526  00FB87  00                 	db	0
   527  00FB88  00                 	db	0
   528  00FB89  03                 	db	3
   529  00FB8A  03                 	db	3
   530  00FB8B  00                 	db	0
   531  00FB8C  00                 	db	0
   532  00FB8D  00                 	db	0
   533  00FB8E  00                 	db	0
   534  00FB8F  00                 	db	0
   535  00FB90  00                 	db	0
   536  00FB91  00                 	db	0
   537  00FB92  00                 	db	0
   538  00FB93  00                 	db	0
   539  00FB94  00                 	db	0
   540  00FB95  00                 	db	0
   541  00FB96  00                 	db	0
   542  00FB97  58                 	db	88
   543  00FB98  38                 	db	56
   544  00FB99  00                 	db	0
   545  00FB9A  00                 	db	0
   546  00FB9B  80                 	db	128
   547  00FB9C  80                 	db	128
   548  00FB9D  80                 	db	128
   549  00FB9E  80                 	db	128
   550  00FB9F  80                 	db	128
   551  00FBA0  80                 	db	128
   552  00FBA1  80                 	db	128
   553  00FBA2  00                 	db	0
   554  00FBA3  00                 	db	0
   555  00FBA4  00                 	db	0
   556  00FBA5  00                 	db	0
   557  00FBA6  00                 	db	0
   558  00FBA7  00                 	db	0
   559  00FBA8  00                 	db	0
   560  00FBA9  00                 	db	0
   561  00FBAA  00                 	db	0
   562  00FBAB  00                 	db	0
   563  00FBAC  00                 	db	0
   564  00FBAD  00                 	db	0
   565  00FBAE  00                 	db	0
   566  00FBAF  00                 	db	0
   567  00FBB0  00                 	db	0
   568  00FBB1  00                 	db	0
   569  00FBB2  00                 	db	0
   570  00FBB3  30                 	db	48
   571  00FBB4  30                 	db	48
   572  00FBB5  00                 	db	0
   573  00FBB6  00                 	db	0
   574  00FBB7  00                 	db	0
   575  00FBB8  00                 	db	0
   576  00FBB9  00                 	db	0
   577  00FBBA  C0                 	db	192
   578  00FBBB  F0                 	db	240
   579  00FBBC  3C                 	db	60
   580  00FBBD  0F                 	db	15
   581  00FBBE  00                 	db	0
   582  00FBBF  3C                 	db	60
   583  00FBC0  0F                 	db	15
   584  00FBC1  03                 	db	3
   585  00FBC2  00                 	db	0
   586  00FBC3  00                 	db	0
   587  00FBC4  00                 	db	0
   588  00FBC5  FC                 	db	252
   589  00FBC6  FE                 	db	254
   590  00FBC7  03                 	db	3
   591  00FBC8  E1                 	db	225
   592  00FBC9  1B                 	db	27
   593  00FBCA  FE                 	db	254
   594  00FBCB  FC                 	db	252
   595  00FBCC  0F                 	db	15
   596  00FBCD  1F                 	db	31
   597  00FBCE  36                 	db	54
   598  00FBCF  21                 	db	33
   599  00FBD0  30                 	db	48
   600  00FBD1  1F                 	db	31
   601  00FBD2  0F                 	db	15
   602  00FBD3  04                 	db	4
   603  00FBD4  04                 	db	4
   604  00FBD5  06                 	db	6
   605  00FBD6  FF                 	db	255
   606  00FBD7  FF                 	db	255
   607  00FBD8  00                 	db	0
   608  00FBD9  00                 	db	0
   609  00FBDA  20                 	db	32
   610  00FBDB  20                 	db	32
   611  00FBDC  20                 	db	32
   612  00FBDD  3F                 	db	63
   613  00FBDE  3F                 	db	63
   614  00FBDF  20                 	db	32
   615  00FBE0  20                 	db	32
   616  00FBE1  0C                 	db	12
   617  00FBE2  0E                 	db	14
   618  00FBE3  03                 	db	3
   619  00FBE4  01                 	db	1
   620  00FBE5  81                 	db	129
   621  00FBE6  FE                 	db	254
   622  00FBE7  7C                 	db	124
   623  00FBE8  38                 	db	56
   624  00FBE9  3C                 	db	60
   625  00FBEA  26                 	db	38
   626  00FBEB  23                 	db	35
   627  00FBEC  21                 	db	33
   628  00FBED  20                 	db	32
   629  00FBEE  20                 	db	32
   630  00FBEF  0C                 	db	12
   631  00FBF0  0E                 	db	14
   632  00FBF1  43                 	db	67
   633  00FBF2  41                 	db	65
   634  00FBF3  43                 	db	67
   635  00FBF4  FE                 	db	254
   636  00FBF5  BC                 	db	188
   637  00FBF6  0C                 	db	12
   638  00FBF7  1C                 	db	28
   639  00FBF8  30                 	db	48
   640  00FBF9  20                 	db	32
   641  00FBFA  30                 	db	48
   642  00FBFB  1F                 	db	31
   643  00FBFC  0F                 	db	15
   644  00FBFD  00                 	db	0
   645  00FBFE  E0                 	db	224
   646  00FBFF  FC                 	db	252
   647  00FC00  1F                 	db	31
   648  00FC01  83                 	db	131
   649  00FC02  80                 	db	128
   650  00FC03  00                 	db	0
   651  00FC04  0F                 	db	15
   652  00FC05  0F                 	db	15
   653  00FC06  08                 	db	8
   654  00FC07  08                 	db	8
   655  00FC08  3F                 	db	63
   656  00FC09  3F                 	db	63
   657  00FC0A  08                 	db	8
   658  00FC0B  3F                 	db	63
   659  00FC0C  3F                 	db	63
   660  00FC0D  21                 	db	33
   661  00FC0E  21                 	db	33
   662  00FC0F  61                 	db	97
   663  00FC10  E1                 	db	225
   664  00FC11  81                 	db	129
   665  00FC12  0C                 	db	12
   666  00FC13  1C                 	db	28
   667  00FC14  30                 	db	48
   668  00FC15  20                 	db	32
   669  00FC16  30                 	db	48
   670  00FC17  3F                 	db	63
   671  00FC18  0F                 	db	15
   672  00FC19  E0                 	db	224
   673  00FC1A  F8                 	db	248
   674  00FC1B  5C                 	db	92
   675  00FC1C  46                 	db	70
   676  00FC1D  C3                 	db	195
   677  00FC1E  C1                 	db	193
   678  00FC1F  01                 	db	1
   679  00FC20  0F                 	db	15
   680  00FC21  1F                 	db	31
   681  00FC22  30                 	db	48
   682  00FC23  20                 	db	32
   683  00FC24  30                 	db	48
   684  00FC25  3F                 	db	63
   685  00FC26  0F                 	db	15
   686  00FC27  01                 	db	1
   687  00FC28  01                 	db	1
   688  00FC29  01                 	db	1
   689  00FC2A  81                 	db	129
   690  00FC2B  F1                 	db	241
   691  00FC2C  7F                 	db	127
   692  00FC2D  0F                 	db	15
   693  00FC2E  00                 	db	0
   694  00FC2F  00                 	db	0
   695  00FC30  3C                 	db	60
   696  00FC31  3F                 	db	63
   697  00FC32  03                 	db	3
   698  00FC33  00                 	db	0
   699  00FC34  00                 	db	0
   700  00FC35  1C                 	db	28
   701  00FC36  BE                 	db	190
   702  00FC37  E3                 	db	227
   703  00FC38  41                 	db	65
   704  00FC39  E3                 	db	227
   705  00FC3A  BE                 	db	190
   706  00FC3B  1C                 	db	28
   707  00FC3C  0F                 	db	15
   708  00FC3D  1F                 	db	31
   709  00FC3E  30                 	db	48
   710  00FC3F  20                 	db	32
   711  00FC40  30                 	db	48
   712  00FC41  1F                 	db	31
   713  00FC42  0F                 	db	15
   714  00FC43  3C                 	db	60
   715  00FC44  7E                 	db	126
   716  00FC45  C3                 	db	195
   717  00FC46  81                 	db	129
   718  00FC47  81                 	db	129
   719  00FC48  FE                 	db	254
   720  00FC49  FC                 	db	252
   721  00FC4A  20                 	db	32
   722  00FC4B  30                 	db	48
   723  00FC4C  38                 	db	56
   724  00FC4D  0C                 	db	12
   725  00FC4E  07                 	db	7
   726  00FC4F  03                 	db	3
   727  00FC50  00                 	db	0
   728  00FC51  00                 	db	0
   729  00FC52  00                 	db	0
   730  00FC53  00                 	db	0
   731  00FC54  60                 	db	96
   732  00FC55  60                 	db	96
   733  00FC56  00                 	db	0
   734  00FC57  00                 	db	0
   735  00FC58  00                 	db	0
   736  00FC59  00                 	db	0
   737  00FC5A  00                 	db	0
   738  00FC5B  30                 	db	48
   739  00FC5C  30                 	db	48
   740  00FC5D  00                 	db	0
   741  00FC5E  00                 	db	0
   742  00FC5F                     __end_of_lcd_font_big:
   743                           	opt stack 0
   744  00FC5F                     _se_logo:
   745                           	opt stack 0
   746  00FC5F  00                 	db	0
   747  00FC60  C0                 	db	192
   748  00FC61  F0                 	db	240
   749  00FC62  78                 	db	120
   750  00FC63  1C                 	db	28
   751  00FC64  0C                 	db	12
   752  00FC65  0E                 	db	14
   753  00FC66  06                 	db	6
   754  00FC67  06                 	db	6
   755  00FC68  07                 	db	7
   756  00FC69  03                 	db	3
   757  00FC6A  03                 	db	3
   758  00FC6B  03                 	db	3
   759  00FC6C  03                 	db	3
   760  00FC6D  03                 	db	3
   761  00FC6E  03                 	db	3
   762  00FC6F  03                 	db	3
   763  00FC70  03                 	db	3
   764  00FC71  03                 	db	3
   765  00FC72  03                 	db	3
   766  00FC73  03                 	db	3
   767  00FC74  03                 	db	3
   768  00FC75  83                 	db	131
   769  00FC76  C3                 	db	195
   770  00FC77  E3                 	db	227
   771  00FC78  73                 	db	115
   772  00FC79  3B                 	db	59
   773  00FC7A  1F                 	db	31
   774  00FC7B  0F                 	db	15
   775  00FC7C  07                 	db	7
   776  00FC7D  03                 	db	3
   777  00FC7E  01                 	db	1
   778  00FC7F  00                 	db	0
   779  00FC80  00                 	db	0
   780  00FC81  00                 	db	0
   781  00FC82  00                 	db	0
   782  00FC83  E0                 	db	224
   783  00FC84  F0                 	db	240
   784  00FC85  F8                 	db	248
   785  00FC86  1C                 	db	28
   786  00FC87  1C                 	db	28
   787  00FC88  0C                 	db	12
   788  00FC89  0C                 	db	12
   789  00FC8A  0C                 	db	12
   790  00FC8B  0C                 	db	12
   791  00FC8C  1C                 	db	28
   792  00FC8D  3C                 	db	60
   793  00FC8E  F8                 	db	248
   794  00FC8F  F0                 	db	240
   795  00FC90  E0                 	db	224
   796  00FC91  00                 	db	0
   797  00FC92  00                 	db	0
   798  00FC93  00                 	db	0
   799  00FC94  FC                 	db	252
   800  00FC95  FC                 	db	252
   801  00FC96  00                 	db	0
   802  00FC97  00                 	db	0
   803  00FC98  00                 	db	0
   804  00FC99  00                 	db	0
   805  00FC9A  00                 	db	0
   806  00FC9B  00                 	db	0
   807  00FC9C  80                 	db	128
   808  00FC9D  80                 	db	128
   809  00FC9E  80                 	db	128
   810  00FC9F  00                 	db	0
   811  00FCA0  00                 	db	0
   812  00FCA1  00                 	db	0
   813  00FCA2  80                 	db	128
   814  00FCA3  80                 	db	128
   815  00FCA4  80                 	db	128
   816  00FCA5  80                 	db	128
   817  00FCA6  80                 	db	128
   818  00FCA7  80                 	db	128
   819  00FCA8  80                 	db	128
   820  00FCA9  80                 	db	128
   821  00FCAA  00                 	db	0
   822  00FCAB  00                 	db	0
   823  00FCAC  00                 	db	0
   824  00FCAD  00                 	db	0
   825  00FCAE  00                 	db	0
   826  00FCAF  00                 	db	0
   827  00FCB0  80                 	db	128
   828  00FCB1  80                 	db	128
   829  00FCB2  80                 	db	128
   830  00FCB3  80                 	db	128
   831  00FCB4  80                 	db	128
   832  00FCB5  80                 	db	128
   833  00FCB6  80                 	db	128
   834  00FCB7  00                 	db	0
   835  00FCB8  80                 	db	128
   836  00FCB9  80                 	db	128
   837  00FCBA  00                 	db	0
   838  00FCBB  00                 	db	0
   839  00FCBC  80                 	db	128
   840  00FCBD  80                 	db	128
   841  00FCBE  00                 	db	0
   842  00FCBF  80                 	db	128
   843  00FCC0  80                 	db	128
   844  00FCC1  80                 	db	128
   845  00FCC2  80                 	db	128
   846  00FCC3  80                 	db	128
   847  00FCC4  80                 	db	128
   848  00FCC5  80                 	db	128
   849  00FCC6  00                 	db	0
   850  00FCC7  80                 	db	128
   851  00FCC8  80                 	db	128
   852  00FCC9  80                 	db	128
   853  00FCCA  80                 	db	128
   854  00FCCB  80                 	db	128
   855  00FCCC  80                 	db	128
   856  00FCCD  80                 	db	128
   857  00FCCE  00                 	db	0
   858  00FCCF  00                 	db	0
   859  00FCD0  00                 	db	0
   860  00FCD1  00                 	db	0
   861  00FCD2  00                 	db	0
   862  00FCD3  00                 	db	0
   863  00FCD4  80                 	db	128
   864  00FCD5  80                 	db	128
   865  00FCD6  80                 	db	128
   866  00FCD7  80                 	db	128
   867  00FCD8  80                 	db	128
   868  00FCD9  80                 	db	128
   869  00FCDA  80                 	db	128
   870  00FCDB  80                 	db	128
   871  00FCDC  00                 	db	0
   872  00FCDD  00                 	db	0
   873  00FCDE  FF                 	db	255
   874  00FCDF  FF                 	db	255
   875  00FCE0  01                 	db	1
   876  00FCE1  00                 	db	0
   877  00FCE2  00                 	db	0
   878  00FCE3  00                 	db	0
   879  00FCE4  00                 	db	0
   880  00FCE5  00                 	db	0
   881  00FCE6  00                 	db	0
   882  00FCE7  00                 	db	0
   883  00FCE8  00                 	db	0
   884  00FCE9  00                 	db	0
   885  00FCEA  00                 	db	0
   886  00FCEB  00                 	db	0
   887  00FCEC  80                 	db	128
   888  00FCED  C0                 	db	192
   889  00FCEE  E0                 	db	224
   890  00FCEF  70                 	db	112
   891  00FCF0  38                 	db	56
   892  00FCF1  1C                 	db	28
   893  00FCF2  0E                 	db	14
   894  00FCF3  07                 	db	7
   895  00FCF4  03                 	db	3
   896  00FCF5  01                 	db	1
   897  00FCF6  00                 	db	0
   898  00FCF7  80                 	db	128
   899  00FCF8  C0                 	db	192
   900  00FCF9  E0                 	db	224
   901  00FCFA  70                 	db	112
   902  00FCFB  38                 	db	56
   903  00FCFC  FC                 	db	252
   904  00FCFD  FE                 	db	254
   905  00FCFE  00                 	db	0
   906  00FCFF  00                 	db	0
   907  00FD00  00                 	db	0
   908  00FD01  00                 	db	0
   909  00FD02  C1                 	db	193
   910  00FD03  C7                 	db	199
   911  00FD04  07                 	db	7
   912  00FD05  0E                 	db	14
   913  00FD06  0E                 	db	14
   914  00FD07  0C                 	db	12
   915  00FD08  1C                 	db	28
   916  00FD09  1C                 	db	28
   917  00FD0A  1C                 	db	28
   918  00FD0B  18                 	db	24
   919  00FD0C  38                 	db	56
   920  00FD0D  78                 	db	120
   921  00FD0E  F0                 	db	240
   922  00FD0F  F0                 	db	240
   923  00FD10  C0                 	db	192
   924  00FD11  00                 	db	0
   925  00FD12  00                 	db	0
   926  00FD13  FF                 	db	255
   927  00FD14  FF                 	db	255
   928  00FD15  F0                 	db	240
   929  00FD16  70                 	db	112
   930  00FD17  78                 	db	120
   931  00FD18  FC                 	db	252
   932  00FD19  EE                 	db	238
   933  00FD1A  C7                 	db	199
   934  00FD1B  03                 	db	3
   935  00FD1C  03                 	db	3
   936  00FD1D  01                 	db	1
   937  00FD1E  00                 	db	0
   938  00FD1F  8C                 	db	140
   939  00FD20  CF                 	db	207
   940  00FD21  EF                 	db	239
   941  00FD22  E3                 	db	227
   942  00FD23  61                 	db	97
   943  00FD24  61                 	db	97
   944  00FD25  61                 	db	97
   945  00FD26  61                 	db	97
   946  00FD27  33                 	db	51
   947  00FD28  FF                 	db	255
   948  00FD29  FF                 	db	255
   949  00FD2A  00                 	db	0
   950  00FD2B  00                 	db	0
   951  00FD2C  F0                 	db	240
   952  00FD2D  FE                 	db	254
   953  00FD2E  FF                 	db	255
   954  00FD2F  07                 	db	7
   955  00FD30  03                 	db	3
   956  00FD31  01                 	db	1
   957  00FD32  01                 	db	1
   958  00FD33  01                 	db	1
   959  00FD34  03                 	db	3
   960  00FD35  03                 	db	3
   961  00FD36  FF                 	db	255
   962  00FD37  FF                 	db	255
   963  00FD38  FF                 	db	255
   964  00FD39  00                 	db	0
   965  00FD3A  00                 	db	0
   966  00FD3B  FF                 	db	255
   967  00FD3C  FF                 	db	255
   968  00FD3D  1F                 	db	31
   969  00FD3E  03                 	db	3
   970  00FD3F  01                 	db	1
   971  00FD40  01                 	db	1
   972  00FD41  01                 	db	1
   973  00FD42  01                 	db	1
   974  00FD43  07                 	db	7
   975  00FD44  FF                 	db	255
   976  00FD45  FF                 	db	255
   977  00FD46  07                 	db	7
   978  00FD47  03                 	db	3
   979  00FD48  01                 	db	1
   980  00FD49  01                 	db	1
   981  00FD4A  01                 	db	1
   982  00FD4B  03                 	db	3
   983  00FD4C  FF                 	db	255
   984  00FD4D  FF                 	db	255
   985  00FD4E  00                 	db	0
   986  00FD4F  00                 	db	0
   987  00FD50  00                 	db	0
   988  00FD51  FC                 	db	252
   989  00FD52  FF                 	db	255
   990  00FD53  0F                 	db	15
   991  00FD54  03                 	db	3
   992  00FD55  01                 	db	1
   993  00FD56  01                 	db	1
   994  00FD57  01                 	db	1
   995  00FD58  01                 	db	1
   996  00FD59  03                 	db	3
   997  00FD5A  07                 	db	7
   998  00FD5B  FF                 	db	255
   999  00FD5C  FE                 	db	254
  1000  00FD5D  FF                 	db	255
  1001  00FD5E  FF                 	db	255
  1002  00FD5F  00                 	db	0
  1003  00FD60  00                 	db	0
  1004  00FD61  00                 	db	0
  1005  00FD62  00                 	db	0
  1006  00FD63  80                 	db	128
  1007  00FD64  C0                 	db	192
  1008  00FD65  E0                 	db	224
  1009  00FD66  70                 	db	112
  1010  00FD67  38                 	db	56
  1011  00FD68  1C                 	db	28
  1012  00FD69  0E                 	db	14
  1013  00FD6A  07                 	db	7
  1014  00FD6B  03                 	db	3
  1015  00FD6C  01                 	db	1
  1016  00FD6D  00                 	db	0
  1017  00FD6E  80                 	db	128
  1018  00FD6F  C0                 	db	192
  1019  00FD70  E0                 	db	224
  1020  00FD71  70                 	db	112
  1021  00FD72  38                 	db	56
  1022  00FD73  1C                 	db	28
  1023  00FD74  0E                 	db	14
  1024  00FD75  07                 	db	7
  1025  00FD76  03                 	db	3
  1026  00FD77  01                 	db	1
  1027  00FD78  00                 	db	0
  1028  00FD79  00                 	db	0
  1029  00FD7A  00                 	db	0
  1030  00FD7B  FF                 	db	255
  1031  00FD7C  FF                 	db	255
  1032  00FD7D  00                 	db	0
  1033  00FD7E  00                 	db	0
  1034  00FD7F  00                 	db	0
  1035  00FD80  00                 	db	0
  1036  00FD81  07                 	db	7
  1037  00FD82  0F                 	db	15
  1038  00FD83  1F                 	db	31
  1039  00FD84  1C                 	db	28
  1040  00FD85  1C                 	db	28
  1041  00FD86  18                 	db	24
  1042  00FD87  18                 	db	24
  1043  00FD88  18                 	db	24
  1044  00FD89  18                 	db	24
  1045  00FD8A  18                 	db	24
  1046  00FD8B  1C                 	db	28
  1047  00FD8C  1E                 	db	30
  1048  00FD8D  0F                 	db	15
  1049  00FD8E  07                 	db	7
  1050  00FD8F  01                 	db	1
  1051  00FD90  00                 	db	0
  1052  00FD91  00                 	db	0
  1053  00FD92  1F                 	db	31
  1054  00FD93  1F                 	db	31
  1055  00FD94  00                 	db	0
  1056  00FD95  00                 	db	0
  1057  00FD96  00                 	db	0
  1058  00FD97  00                 	db	0
  1059  00FD98  03                 	db	3
  1060  00FD99  07                 	db	7
  1061  00FD9A  0F                 	db	15
  1062  00FD9B  1E                 	db	30
  1063  00FD9C  1C                 	db	28
  1064  00FD9D  00                 	db	0
  1065  00FD9E  0F                 	db	15
  1066  00FD9F  1F                 	db	31
  1067  00FDA0  1D                 	db	29
  1068  00FDA1  18                 	db	24
  1069  00FDA2  18                 	db	24
  1070  00FDA3  18                 	db	24
  1071  00FDA4  18                 	db	24
  1072  00FDA5  1C                 	db	28
  1073  00FDA6  0E                 	db	14
  1074  00FDA7  0F                 	db	15
  1075  00FDA8  1F                 	db	31
  1076  00FDA9  18                 	db	24
  1077  00FDAA  18                 	db	24
  1078  00FDAB  00                 	db	0
  1079  00FDAC  C3                 	db	195
  1080  00FDAD  CF                 	db	207
  1081  00FDAE  CE                 	db	206
  1082  00FDAF  1C                 	db	28
  1083  00FDB0  1C                 	db	28
  1084  00FDB1  18                 	db	24
  1085  00FDB2  18                 	db	24
  1086  00FDB3  1C                 	db	28
  1087  00FDB4  8E                 	db	142
  1088  00FDB5  F7                 	db	247
  1089  00FDB6  FF                 	db	255
  1090  00FDB7  7F                 	db	127
  1091  00FDB8  00                 	db	0
  1092  00FDB9  00                 	db	0
  1093  00FDBA  1F                 	db	31
  1094  00FDBB  1F                 	db	31
  1095  00FDBC  00                 	db	0
  1096  00FDBD  00                 	db	0
  1097  00FDBE  00                 	db	0
  1098  00FDBF  00                 	db	0
  1099  00FDC0  00                 	db	0
  1100  00FDC1  00                 	db	0
  1101  00FDC2  00                 	db	0
  1102  00FDC3  1F                 	db	31
  1103  00FDC4  1F                 	db	31
  1104  00FDC5  00                 	db	0
  1105  00FDC6  00                 	db	0
  1106  00FDC7  00                 	db	0
  1107  00FDC8  00                 	db	0
  1108  00FDC9  00                 	db	0
  1109  00FDCA  00                 	db	0
  1110  00FDCB  1F                 	db	31
  1111  00FDCC  1F                 	db	31
  1112  00FDCD  00                 	db	0
  1113  00FDCE  00                 	db	0
  1114  00FDCF  00                 	db	0
  1115  00FDD0  07                 	db	7
  1116  00FDD1  0F                 	db	15
  1117  00FDD2  1E                 	db	30
  1118  00FDD3  1C                 	db	28
  1119  00FDD4  18                 	db	24
  1120  00FDD5  18                 	db	24
  1121  00FDD6  18                 	db	24
  1122  00FDD7  18                 	db	24
  1123  00FDD8  1C                 	db	28
  1124  00FDD9  1E                 	db	30
  1125  00FDDA  0F                 	db	15
  1126  00FDDB  07                 	db	7
  1127  00FDDC  FF                 	db	255
  1128  00FDDD  7F                 	db	127
  1129  00FDDE  38                 	db	56
  1130  00FDDF  1C                 	db	28
  1131  00FDE0  0E                 	db	14
  1132  00FDE1  07                 	db	7
  1133  00FDE2  03                 	db	3
  1134  00FDE3  01                 	db	1
  1135  00FDE4  00                 	db	0
  1136  00FDE5  80                 	db	128
  1137  00FDE6  C0                 	db	192
  1138  00FDE7  E0                 	db	224
  1139  00FDE8  70                 	db	112
  1140  00FDE9  38                 	db	56
  1141  00FDEA  1C                 	db	28
  1142  00FDEB  0E                 	db	14
  1143  00FDEC  07                 	db	7
  1144  00FDED  03                 	db	3
  1145  00FDEE  01                 	db	1
  1146  00FDEF  00                 	db	0
  1147  00FDF0  00                 	db	0
  1148  00FDF1  00                 	db	0
  1149  00FDF2  00                 	db	0
  1150  00FDF3  00                 	db	0
  1151  00FDF4  00                 	db	0
  1152  00FDF5  00                 	db	0
  1153  00FDF6  00                 	db	0
  1154  00FDF7  00                 	db	0
  1155  00FDF8  00                 	db	0
  1156  00FDF9  00                 	db	0
  1157  00FDFA  FF                 	db	255
  1158  00FDFB  FF                 	db	255
  1159  00FDFC  00                 	db	0
  1160  00FDFD  00                 	db	0
  1161  00FDFE  00                 	db	0
  1162  00FDFF  00                 	db	0
  1163  00FE00  FC                 	db	252
  1164  00FE01  FC                 	db	252
  1165  00FE02  0C                 	db	12
  1166  00FE03  0C                 	db	12
  1167  00FE04  0C                 	db	12
  1168  00FE05  0C                 	db	12
  1169  00FE06  0C                 	db	12
  1170  00FE07  0C                 	db	12
  1171  00FE08  0C                 	db	12
  1172  00FE09  0C                 	db	12
  1173  00FE0A  00                 	db	0
  1174  00FE0B  FC                 	db	252
  1175  00FE0C  FC                 	db	252
  1176  00FE0D  00                 	db	0
  1177  00FE0E  00                 	db	0
  1178  00FE0F  80                 	db	128
  1179  00FE10  C0                 	db	192
  1180  00FE11  C0                 	db	192
  1181  00FE12  E0                 	db	224
  1182  00FE13  60                 	db	96
  1183  00FE14  60                 	db	96
  1184  00FE15  C0                 	db	192
  1185  00FE16  C0                 	db	192
  1186  00FE17  80                 	db	128
  1187  00FE18  00                 	db	0
  1188  00FE19  00                 	db	0
  1189  00FE1A  80                 	db	128
  1190  00FE1B  C0                 	db	192
  1191  00FE1C  E0                 	db	224
  1192  00FE1D  60                 	db	96
  1193  00FE1E  60                 	db	96
  1194  00FE1F  E0                 	db	224
  1195  00FE20  C0                 	db	192
  1196  00FE21  C0                 	db	192
  1197  00FE22  00                 	db	0
  1198  00FE23  40                 	db	64
  1199  00FE24  F8                 	db	248
  1200  00FE25  F8                 	db	248
  1201  00FE26  40                 	db	64
  1202  00FE27  40                 	db	64
  1203  00FE28  00                 	db	0
  1204  00FE29  80                 	db	128
  1205  00FE2A  C0                 	db	192
  1206  00FE2B  E0                 	db	224
  1207  00FE2C  61                 	db	97
  1208  00FE2D  63                 	db	99
  1209  00FE2E  63                 	db	99
  1210  00FE2F  03                 	db	3
  1211  00FE30  C3                 	db	195
  1212  00FE31  C3                 	db	195
  1213  00FE32  E3                 	db	227
  1214  00FE33  63                 	db	99
  1215  00FE34  63                 	db	99
  1216  00FE35  E1                 	db	225
  1217  00FE36  C0                 	db	192
  1218  00FE37  80                 	db	128
  1219  00FE38  00                 	db	0
  1220  00FE39  00                 	db	0
  1221  00FE3A  C0                 	db	192
  1222  00FE3B  C0                 	db	192
  1223  00FE3C  E0                 	db	224
  1224  00FE3D  E0                 	db	224
  1225  00FE3E  60                 	db	96
  1226  00FE3F  60                 	db	96
  1227  00FE40  E0                 	db	224
  1228  00FE41  C0                 	db	192
  1229  00FE42  80                 	db	128
  1230  00FE43  00                 	db	0
  1231  00FE44  00                 	db	0
  1232  00FE45  DC                 	db	220
  1233  00FE46  DC                 	db	220
  1234  00FE47  00                 	db	0
  1235  00FE48  00                 	db	0
  1236  00FE49  C0                 	db	192
  1237  00FE4A  C0                 	db	192
  1238  00FE4B  E0                 	db	224
  1239  00FE4C  60                 	db	96
  1240  00FE4D  60                 	db	96
  1241  00FE4E  E0                 	db	224
  1242  00FE4F  C0                 	db	192
  1243  00FE50  80                 	db	128
  1244  00FE51  00                 	db	0
  1245  00FE52  80                 	db	128
  1246  00FE53  C0                 	db	192
  1247  00FE54  C0                 	db	192
  1248  00FE55  60                 	db	96
  1249  00FE56  60                 	db	96
  1250  00FE57  E0                 	db	224
  1251  00FE58  C0                 	db	192
  1252  00FE59  C0                 	db	192
  1253  00FE5A  80                 	db	128
  1254  00FE5B  00                 	db	0
  1255  00FE5C  80                 	db	128
  1256  00FE5D  C0                 	db	192
  1257  00FE5E  E0                 	db	224
  1258  00FE5F  F0                 	db	240
  1259  00FE60  B8                 	db	184
  1260  00FE61  9C                 	db	156
  1261  00FE62  8E                 	db	142
  1262  00FE63  87                 	db	135
  1263  00FE64  83                 	db	131
  1264  00FE65  81                 	db	129
  1265  00FE66  80                 	db	128
  1266  00FE67  80                 	db	128
  1267  00FE68  80                 	db	128
  1268  00FE69  80                 	db	128
  1269  00FE6A  80                 	db	128
  1270  00FE6B  80                 	db	128
  1271  00FE6C  80                 	db	128
  1272  00FE6D  80                 	db	128
  1273  00FE6E  80                 	db	128
  1274  00FE6F  80                 	db	128
  1275  00FE70  80                 	db	128
  1276  00FE71  80                 	db	128
  1277  00FE72  80                 	db	128
  1278  00FE73  C0                 	db	192
  1279  00FE74  C0                 	db	192
  1280  00FE75  E0                 	db	224
  1281  00FE76  70                 	db	112
  1282  00FE77  38                 	db	56
  1283  00FE78  3E                 	db	62
  1284  00FE79  0F                 	db	15
  1285  00FE7A  03                 	db	3
  1286  00FE7B  00                 	db	0
  1287  00FE7C  00                 	db	0
  1288  00FE7D  00                 	db	0
  1289  00FE7E  00                 	db	0
  1290  00FE7F  FF                 	db	255
  1291  00FE80  FF                 	db	255
  1292  00FE81  83                 	db	131
  1293  00FE82  83                 	db	131
  1294  00FE83  83                 	db	131
  1295  00FE84  83                 	db	131
  1296  00FE85  83                 	db	131
  1297  00FE86  83                 	db	131
  1298  00FE87  83                 	db	131
  1299  00FE88  83                 	db	131
  1300  00FE89  00                 	db	0
  1301  00FE8A  FF                 	db	255
  1302  00FE8B  FF                 	db	255
  1303  00FE8C  00                 	db	0
  1304  00FE8D  00                 	db	0
  1305  00FE8E  7F                 	db	127
  1306  00FE8F  FF                 	db	255
  1307  00FE90  CC                 	db	204
  1308  00FE91  CC                 	db	204
  1309  00FE92  8C                 	db	140
  1310  00FE93  8C                 	db	140
  1311  00FE94  CC                 	db	204
  1312  00FE95  EF                 	db	239
  1313  00FE96  6F                 	db	111
  1314  00FE97  00                 	db	0
  1315  00FE98  3F                 	db	63
  1316  00FE99  7F                 	db	127
  1317  00FE9A  E1                 	db	225
  1318  00FE9B  C0                 	db	192
  1319  00FE9C  80                 	db	128
  1320  00FE9D  80                 	db	128
  1321  00FE9E  C0                 	db	192
  1322  00FE9F  F3                 	db	243
  1323  00FEA0  73                 	db	115
  1324  00FEA1  00                 	db	0
  1325  00FEA2  00                 	db	0
  1326  00FEA3  FF                 	db	255
  1327  00FEA4  FF                 	db	255
  1328  00FEA5  80                 	db	128
  1329  00FEA6  80                 	db	128
  1330  00FEA7  00                 	db	0
  1331  00FEA8  FF                 	db	255
  1332  00FEA9  FF                 	db	255
  1333  00FEAA  03                 	db	3
  1334  00FEAB  00                 	db	0
  1335  00FEAC  00                 	db	0
  1336  00FEAD  00                 	db	0
  1337  00FEAE  3F                 	db	63
  1338  00FEAF  FF                 	db	255
  1339  00FEB0  E1                 	db	225
  1340  00FEB1  C0                 	db	192
  1341  00FEB2  80                 	db	128
  1342  00FEB3  80                 	db	128
  1343  00FEB4  C0                 	db	192
  1344  00FEB5  E1                 	db	225
  1345  00FEB6  7F                 	db	127
  1346  00FEB7  3F                 	db	63
  1347  00FEB8  00                 	db	0
  1348  00FEB9  FF                 	db	255
  1349  00FEBA  FF                 	db	255
  1350  00FEBB  01                 	db	1
  1351  00FEBC  00                 	db	0
  1352  00FEBD  00                 	db	0
  1353  00FEBE  00                 	db	0
  1354  00FEBF  00                 	db	0
  1355  00FEC0  FF                 	db	255
  1356  00FEC1  FF                 	db	255
  1357  00FEC2  00                 	db	0
  1358  00FEC3  00                 	db	0
  1359  00FEC4  FF                 	db	255
  1360  00FEC5  FF                 	db	255
  1361  00FEC6  00                 	db	0
  1362  00FEC7  3F                 	db	63
  1363  00FEC8  FF                 	db	255
  1364  00FEC9  E1                 	db	225
  1365  00FECA  C0                 	db	192
  1366  00FECB  80                 	db	128
  1367  00FECC  80                 	db	128
  1368  00FECD  C0                 	db	192
  1369  00FECE  F3                 	db	243
  1370  00FECF  73                 	db	115
  1371  00FED0  00                 	db	0
  1372  00FED1  73                 	db	115
  1373  00FED2  F7                 	db	247
  1374  00FED3  C6                 	db	198
  1375  00FED4  8E                 	db	142
  1376  00FED5  8C                 	db	140
  1377  00FED6  8C                 	db	140
  1378  00FED7  DC                 	db	220
  1379  00FED8  F9                 	db	249
  1380  00FED9  79                 	db	121
  1381  00FEDA  01                 	db	1
  1382  00FEDB  01                 	db	1
  1383  00FEDC  01                 	db	1
  1384  00FEDD  01                 	db	1
  1385  00FEDE  01                 	db	1
  1386  00FEDF  01                 	db	1
  1387  00FEE0  01                 	db	1
  1388  00FEE1  01                 	db	1
  1389  00FEE2  01                 	db	1
  1390  00FEE3  01                 	db	1
  1391  00FEE4  01                 	db	1
  1392  00FEE5  01                 	db	1
  1393  00FEE6  01                 	db	1
  1394  00FEE7  01                 	db	1
  1395  00FEE8  01                 	db	1
  1396  00FEE9  01                 	db	1
  1397  00FEEA  01                 	db	1
  1398  00FEEB  01                 	db	1
  1399  00FEEC  01                 	db	1
  1400  00FEED  01                 	db	1
  1401  00FEEE  01                 	db	1
  1402  00FEEF  01                 	db	1
  1403  00FEF0  01                 	db	1
  1404  00FEF1  01                 	db	1
  1405  00FEF2  00                 	db	0
  1406  00FEF3  00                 	db	0
  1407  00FEF4  00                 	db	0
  1408  00FEF5  00                 	db	0
  1409  00FEF6  00                 	db	0
  1410  00FEF7  00                 	db	0
  1411  00FEF8  00                 	db	0
  1412  00FEF9  00                 	db	0
  1413  00FEFA  00                 	db	0
  1414  00FEFB  00                 	db	0
  1415  00FEFC  00                 	db	0
  1416  00FEFD  00                 	db	0
  1417  00FEFE  01                 	db	1
  1418  00FEFF  01                 	db	1
  1419  00FF00  01                 	db	1
  1420  00FF01  01                 	db	1
  1421  00FF02  01                 	db	1
  1422  00FF03  01                 	db	1
  1423  00FF04  01                 	db	1
  1424  00FF05  01                 	db	1
  1425  00FF06  01                 	db	1
  1426  00FF07  01                 	db	1
  1427  00FF08  00                 	db	0
  1428  00FF09  01                 	db	1
  1429  00FF0A  01                 	db	1
  1430  00FF0B  00                 	db	0
  1431  00FF0C  00                 	db	0
  1432  00FF0D  00                 	db	0
  1433  00FF0E  00                 	db	0
  1434  00FF0F  00                 	db	0
  1435  00FF10  01                 	db	1
  1436  00FF11  01                 	db	1
  1437  00FF12  01                 	db	1
  1438  00FF13  00                 	db	0
  1439  00FF14  00                 	db	0
  1440  00FF15  00                 	db	0
  1441  00FF16  00                 	db	0
  1442  00FF17  00                 	db	0
  1443  00FF18  00                 	db	0
  1444  00FF19  00                 	db	0
  1445  00FF1A  01                 	db	1
  1446  00FF1B  01                 	db	1
  1447  00FF1C  01                 	db	1
  1448  00FF1D  01                 	db	1
  1449  00FF1E  00                 	db	0
  1450  00FF1F  00                 	db	0
  1451  00FF20  00                 	db	0
  1452  00FF21  00                 	db	0
  1453  00FF22  00                 	db	0
  1454  00FF23  01                 	db	1
  1455  00FF24  01                 	db	1
  1456  00FF25  00                 	db	0
  1457  00FF26  00                 	db	0
  1458  00FF27  01                 	db	1
  1459  00FF28  01                 	db	1
  1460  00FF29  00                 	db	0
  1461  00FF2A  00                 	db	0
  1462  00FF2B  00                 	db	0
  1463  00FF2C  00                 	db	0
  1464  00FF2D  00                 	db	0
  1465  00FF2E  00                 	db	0
  1466  00FF2F  00                 	db	0
  1467  00FF30  01                 	db	1
  1468  00FF31  01                 	db	1
  1469  00FF32  01                 	db	1
  1470  00FF33  00                 	db	0
  1471  00FF34  00                 	db	0
  1472  00FF35  00                 	db	0
  1473  00FF36  00                 	db	0
  1474  00FF37  00                 	db	0
  1475  00FF38  01                 	db	1
  1476  00FF39  01                 	db	1
  1477  00FF3A  00                 	db	0
  1478  00FF3B  00                 	db	0
  1479  00FF3C  00                 	db	0
  1480  00FF3D  00                 	db	0
  1481  00FF3E  00                 	db	0
  1482  00FF3F  01                 	db	1
  1483  00FF40  01                 	db	1
  1484  00FF41  00                 	db	0
  1485  00FF42  00                 	db	0
  1486  00FF43  01                 	db	1
  1487  00FF44  01                 	db	1
  1488  00FF45  00                 	db	0
  1489  00FF46  00                 	db	0
  1490  00FF47  00                 	db	0
  1491  00FF48  00                 	db	0
  1492  00FF49  01                 	db	1
  1493  00FF4A  01                 	db	1
  1494  00FF4B  01                 	db	1
  1495  00FF4C  01                 	db	1
  1496  00FF4D  00                 	db	0
  1497  00FF4E  00                 	db	0
  1498  00FF4F  00                 	db	0
  1499  00FF50  00                 	db	0
  1500  00FF51  00                 	db	0
  1501  00FF52  00                 	db	0
  1502  00FF53  01                 	db	1
  1503  00FF54  01                 	db	1
  1504  00FF55  01                 	db	1
  1505  00FF56  00                 	db	0
  1506  00FF57  00                 	db	0
  1507  00FF58  00                 	db	0
  1508  00FF59                     __end_of_se_logo:
  1509                           	opt stack 0
  1510  0000                     _LATBbits	set	3978
  1511  0000                     _OSCCONbits	set	4051
  1512  0000                     _OSCTUNEbits	set	3995
  1513  0000                     _PIR1bits	set	3998
  1514  0000                     _SSPBUF	set	4041
  1515  0000                     _SSPCON1bits	set	4038
  1516  0000                     _SSPSTATbits	set	4039
  1517  0000                     _TRISA	set	3986
  1518  0000                     _TRISB	set	3987
  1519  0000                     _TRISC	set	3988
  1520  00FF59                     __stringdata:
  1521                           	opt stack 0
  1522  00FF59                     STR_3:
  1523  00FF59  2D                 	db	45
  1524  00FF5A  20                 	db	32
  1525  00FF5B  4D                 	db	77	;'M'
  1526  00FF5C  65                 	db	101	;'e'
  1527  00FF5D  61                 	db	97	;'a'
  1528  00FF5E  73                 	db	115	;'s'
  1529  00FF5F  75                 	db	117	;'u'
  1530  00FF60  72                 	db	114	;'r'
  1531  00FF61  65                 	db	101	;'e'
  1532  00FF62  6D                 	db	109	;'m'
  1533  00FF63  65                 	db	101	;'e'
  1534  00FF64  6E                 	db	110	;'n'
  1535  00FF65  74                 	db	116	;'t'
  1536  00FF66  20                 	db	32
  1537  00FF67  2D                 	db	45
  1538  00FF68  00                 	db	0
  1539  00FF69                     STR_2:
  1540  00FF69  48                 	db	72	;'H'
  1541  00FF6A  57                 	db	87	;'W'
  1542  00FF6B  20                 	db	32
  1543  00FF6C  30                 	db	48	;'0'
  1544  00FF6D  2E                 	db	46
  1545  00FF6E  32                 	db	50	;'2'
  1546  00FF6F  2C                 	db	44
  1547  00FF70  20                 	db	32
  1548  00FF71  53                 	db	83	;'S'
  1549  00FF72  57                 	db	87	;'W'
  1550  00FF73  20                 	db	32
  1551  00FF74  30                 	db	48	;'0'
  1552  00FF75  2E                 	db	46
  1553  00FF76  32                 	db	50	;'2'
  1554  00FF77  00                 	db	0
  1555  00FF78                     STR_18:
  1556  00FF78  42                 	db	66	;'B'
  1557  00FF79  41                 	db	65	;'A'
  1558  00FF7A  43                 	db	67	;'C'
  1559  00FF7B  4B                 	db	75	;'K'
  1560  00FF7C  4C                 	db	76	;'L'
  1561  00FF7D  49                 	db	73	;'I'
  1562  00FF7E  47                 	db	71	;'G'
  1563  00FF7F  48                 	db	72	;'H'
  1564  00FF80  54                 	db	84	;'T'
  1565  00FF81  20                 	db	32
  1566  00FF82  4F                 	db	79	;'O'
  1567  00FF83  46                 	db	70	;'F'
  1568  00FF84  46                 	db	70	;'F'
  1569  00FF85  00                 	db	0
  1570  00FF86                     STR_1:
  1571  00FF86  4D                 	db	77	;'M'
  1572  00FF87  50                 	db	80	;'P'
  1573  00FF88  50                 	db	80	;'P'
  1574  00FF89  54                 	db	84	;'T'
  1575  00FF8A  20                 	db	32
  1576  00FF8B  63                 	db	99	;'c'
  1577  00FF8C  68                 	db	104	;'h'
  1578  00FF8D  61                 	db	97	;'a'
  1579  00FF8E  72                 	db	114	;'r'
  1580  00FF8F  67                 	db	103	;'g'
  1581  00FF90  65                 	db	101	;'e'
  1582  00FF91  72                 	db	114	;'r'
  1583  00FF92  00                 	db	0
  1584  00FF93                     STR_19:
  1585  00FF93  52                 	db	82	;'R'
  1586  00FF94  45                 	db	69	;'E'
  1587  00FF95  53                 	db	83	;'S'
  1588  00FF96  45                 	db	69	;'E'
  1589  00FF97  54                 	db	84	;'T'
  1590  00FF98  5F                 	db	95	;'_'
  1591  00FF99  53                 	db	83	;'S'
  1592  00FF9A  54                 	db	84	;'T'
  1593  00FF9B  41                 	db	65	;'A'
  1594  00FF9C  54                 	db	84	;'T'
  1595  00FF9D  53                 	db	83	;'S'
  1596  00FF9E  00                 	db	0
  1597  00FF9F                     STR_13:
  1598  00FF9F  46                 	db	70	;'F'
  1599  00FFA0  72                 	db	114	;'r'
  1600  00FFA1  6F                 	db	111	;'o'
  1601  00FFA2  6D                 	db	109	;'m'
  1602  00FFA3  20                 	db	32
  1603  00FFA4  62                 	db	98	;'b'
  1604  00FFA5  61                 	db	97	;'a'
  1605  00FFA6  74                 	db	116	;'t'
  1606  00FFA7  2E                 	db	46
  1607  00FFA8  00                 	db	0
  1608  00FFA9                     STR_16:
  1609  00FFA9  4F                 	db	79	;'O'
  1610  00FFAA  55                 	db	85	;'U'
  1611  00FFAB  54                 	db	84	;'T'
  1612  00FFAC  5F                 	db	95	;'_'
  1613  00FFAD  31                 	db	49	;'1'
  1614  00FFAE  20                 	db	32
  1615  00FFAF  4F                 	db	79	;'O'
  1616  00FFB0  46                 	db	70	;'F'
  1617  00FFB1  46                 	db	70	;'F'
  1618  00FFB2  00                 	db	0
  1619  00FFB3                     STR_17:
  1620  00FFB3  4F                 	db	79	;'O'
  1621  00FFB4  55                 	db	85	;'U'
  1622  00FFB5  54                 	db	84	;'T'
  1623  00FFB6  5F                 	db	95	;'_'
  1624  00FFB7  32                 	db	50	;'2'
  1625  00FFB8  20                 	db	32
  1626  00FFB9  4F                 	db	79	;'O'
  1627  00FFBA  46                 	db	70	;'F'
  1628  00FFBB  46                 	db	70	;'F'
  1629  00FFBC  00                 	db	0
  1630  00FFBD                     STR_10:
  1631  00FFBD  54                 	db	84	;'T'
  1632  00FFBE  6F                 	db	111	;'o'
  1633  00FFBF  20                 	db	32
  1634  00FFC0  62                 	db	98	;'b'
  1635  00FFC1  61                 	db	97	;'a'
  1636  00FFC2  74                 	db	116	;'t'
  1637  00FFC3  2E                 	db	46
  1638  00FFC4  00                 	db	0
  1639  00FFC5                     STR_14:
  1640  00FFC5  20                 	db	32
  1641  00FFC6  32                 	db	50	;'2'
  1642  00FFC7  32                 	db	50	;'2'
  1643  00FFC8  2E                 	db	46
  1644  00FFC9  32                 	db	50	;'2'
  1645  00FFCA  37                 	db	55	;'7'
  1646  00FFCB  41                 	db	65	;'A'
  1647  00FFCC  00                 	db	0
  1648  00FFCD                     STR_8:
  1649  00FFCD  42                 	db	66	;'B'
  1650  00FFCE  61                 	db	97	;'a'
  1651  00FFCF  74                 	db	116	;'t'
  1652  00FFD0  74                 	db	116	;'t'
  1653  00FFD1  65                 	db	101	;'e'
  1654  00FFD2  72                 	db	114	;'r'
  1655  00FFD3  79                 	db	121	;'y'
  1656  00FFD4  00                 	db	0
  1657  00FFD5                     STR_11:
  1658  00FFD5  20                 	db	32
  1659  00FFD6  30                 	db	48	;'0'
  1660  00FFD7  2E                 	db	46
  1661  00FFD8  38                 	db	56	;'8'
  1662  00FFD9  31                 	db	49	;'1'
  1663  00FFDA  41                 	db	65	;'A'
  1664  00FFDB  00                 	db	0
  1665  00FFDC                     STR_7:
  1666  00FFDC  31                 	db	49	;'1'
  1667  00FFDD  38                 	db	56	;'8'
  1668  00FFDE  2E                 	db	46
  1669  00FFDF  35                 	db	53	;'5'
  1670  00FFE0  31                 	db	49	;'1'
  1671  00FFE1  00                 	db	0
  1672  00FFE2                     STR_15:
  1673  00FFE2  31                 	db	49	;'1'
  1674  00FFE3  32                 	db	50	;'2'
  1675  00FFE4  37                 	db	55	;'7'
  1676  00FFE5  2E                 	db	46
  1677  00FFE6  33                 	db	51	;'3'
  1678  00FFE7  00                 	db	0
  1679  00FFE8                     STR_9:
  1680  00FFE8  31                 	db	49	;'1'
  1681  00FFE9  32                 	db	50	;'2'
  1682  00FFEA  2E                 	db	46
  1683  00FFEB  35                 	db	53	;'5'
  1684  00FFEC  34                 	db	52	;'4'
  1685  00FFED  00                 	db	0
  1686  00FFEE                     STR_4:
  1687  00FFEE  53                 	db	83	;'S'
  1688  00FFEF  74                 	db	116	;'t'
  1689  00FFF0  61                 	db	97	;'a'
  1690  00FFF1  74                 	db	116	;'t'
  1691  00FFF2  65                 	db	101	;'e'
  1692  00FFF3  00                 	db	0
  1693  00FFF4                     STR_12:
  1694  00FFF4  37                 	db	55	;'7'
  1695  00FFF5  2E                 	db	46
  1696  00FFF6  35                 	db	53	;'5'
  1697  00FFF7  00                 	db	0
  1698  00FFF8                     STR_5:
  1699  00FFF8  43                 	db	67	;'C'
  1700  00FFF9  48                 	db	72	;'H'
  1701  00FFFA  47                 	db	71	;'G'
  1702  00FFFB  00                 	db	0
  1703  00FFFC                     STR_6:
  1704  00FFFC  50                 	db	80	;'P'
  1705  00FFFD  56                 	db	86	;'V'
  1706  00FFFE  00                 	db	0
  1707  00FFFF                     __end_of__stringdata:
  1708                           	opt stack 0
  1709                           
  1710                           ; #config settings
  1711  00FFFF  00                 	db	0	; dummy byte at the end
  1712  0000                     
  1713                           	psect	cinit
  1714  00F234                     __pcinit:
  1715                           	opt stack 0
  1716  00F234                     start_initialization:
  1717                           	opt stack 0
  1718  00F234                     __initialization:
  1719                           	opt stack 0
  1720                           
  1721                           ; Clear objects allocated to BIGRAM (1024 bytes)
  1722  00F234  EE0B  F080         	lfsr	0,__pbssBIGRAM
  1723  00F238  EE14 F000          	lfsr	1,1024
  1724  00F23C                     clear_0:
  1725  00F23C  6AEE               	clrf	postinc0,c
  1726  00F23E  50E5               	movf	postdec1,w,c
  1727  00F240  50E1               	movf	fsr1l,w,c
  1728  00F242  E1FC               	bnz	clear_0
  1729  00F244  50E2               	movf	fsr1h,w,c
  1730  00F246  E1FA               	bnz	clear_0
  1731                           
  1732                           ; Clear objects allocated to COMRAM (2 bytes)
  1733  00F248  6A1A               	clrf	(__pbssCOMRAM+1)& (0+255),c
  1734  00F24A  6A19               	clrf	__pbssCOMRAM& (0+255),c
  1735  00F24C                     end_of_initialization:
  1736                           	opt stack 0
  1737  00F24C                     __end_of__initialization:
  1738                           	opt stack 0
  1739  00F24C  0100               	movlb	0
  1740  00F24E  EFAA  F07B         	goto	_main	;jump to C main() function
  1741                           postinc0	equ	0xFEE
  1742                           postdec1	equ	0xFE5
  1743                           fsr1h	equ	0xFE2
  1744                           fsr1l	equ	0xFE1
  1745                           
  1746                           	psect	bssCOMRAM
  1747  000019                     __pbssCOMRAM:
  1748                           	opt stack 0
  1749  000019                     _lcd_line:
  1750                           	opt stack 0
  1751  000019                     	ds	1
  1752  00001A                     _lcd_x:
  1753                           	opt stack 0
  1754  00001A                     	ds	1
  1755                           postinc0	equ	0xFEE
  1756                           postdec1	equ	0xFE5
  1757                           fsr1h	equ	0xFE2
  1758                           fsr1l	equ	0xFE1
  1759                           
  1760                           	psect	bssBIGRAM
  1761  000B80                     __pbssBIGRAM:
  1762                           	opt stack 0
  1763  000B80                     _lcd_buf:
  1764                           	opt stack 0
  1765  000B80                     	ds	1024
  1766                           postinc0	equ	0xFEE
  1767                           postdec1	equ	0xFE5
  1768                           fsr1h	equ	0xFE2
  1769                           fsr1l	equ	0xFE1
  1770                           
  1771                           	psect	cstackCOMRAM
  1772  000001                     __pcstackCOMRAM:
  1773                           	opt stack 0
  1774  000001                     ?___wmul:
  1775                           	opt stack 0
  1776  000001                     spi@data:
  1777                           	opt stack 0
  1778  000001                     lcd_cursor@line:
  1779                           	opt stack 0
  1780  000001                     lcd_bitmap@gfx:
  1781                           	opt stack 0
  1782  000001                     delay_ms@n:
  1783                           	opt stack 0
  1784  000001                     memset@p1:
  1785                           	opt stack 0
  1786  000001                     ___wmul@multiplier:
  1787                           	opt stack 0
  1788                           
  1789                           ; 2 bytes @ 0x0
  1790  000001                     	ds	1
  1791  000002                     ??_lcd_refresh:
  1792  000002                     lcd_cursor@x:
  1793                           	opt stack 0
  1794                           
  1795                           ; 1 bytes @ 0x1
  1796  000002                     	ds	1
  1797  000003                     ??_delay_ms:
  1798  000003                     lcd_bitmap@x_size:
  1799                           	opt stack 0
  1800  000003                     memset@c:
  1801                           	opt stack 0
  1802  000003                     ___wmul@multiplicand:
  1803                           	opt stack 0
  1804                           
  1805                           ; 2 bytes @ 0x2
  1806  000003                     	ds	1
  1807  000004                     lcd_bitmap@line_size:
  1808                           	opt stack 0
  1809  000004                     delay_ms@j:
  1810                           	opt stack 0
  1811                           
  1812                           ; 2 bytes @ 0x3
  1813  000004                     	ds	1
  1814  000005                     ??_lcd_bitmap:
  1815  000005                     memset@n:
  1816                           	opt stack 0
  1817  000005                     ___wmul@product:
  1818                           	opt stack 0
  1819                           
  1820                           ; 2 bytes @ 0x4
  1821  000005                     	ds	1
  1822  000006                     lcd_refresh@x:
  1823                           	opt stack 0
  1824                           
  1825                           ; 1 bytes @ 0x5
  1826  000006                     	ds	1
  1827  000007                     ??_lcd_put:
  1828  000007                     ??_lcd_put_large:
  1829  000007                     lcd_refresh@y:
  1830                           	opt stack 0
  1831  000007                     memset@p:
  1832                           	opt stack 0
  1833                           
  1834                           ; 2 bytes @ 0x6
  1835  000007                     	ds	2
  1836  000009                     
  1837                           ; 0 bytes @ 0x8
  1838  000009                     	ds	2
  1839  00000B                     lcd_put_large@c:
  1840                           	opt stack 0
  1841                           
  1842                           ; 1 bytes @ 0xA
  1843  00000B                     	ds	1
  1844  00000C                     lcd_put_large@j:
  1845                           	opt stack 0
  1846                           
  1847                           ; 1 bytes @ 0xB
  1848  00000C                     	ds	1
  1849  00000D                     lcd_bitmap@x:
  1850                           	opt stack 0
  1851  00000D                     lcd_put@c:
  1852                           	opt stack 0
  1853  00000D                     lcd_puts_large@s:
  1854                           	opt stack 0
  1855                           
  1856                           ; 2 bytes @ 0xC
  1857  00000D                     	ds	1
  1858  00000E                     lcd_bitmap@line:
  1859                           	opt stack 0
  1860  00000E                     lcd_put@j:
  1861                           	opt stack 0
  1862                           
  1863                           ; 1 bytes @ 0xD
  1864  00000E                     	ds	1
  1865  00000F                     lcd_puts@s:
  1866                           	opt stack 0
  1867                           
  1868                           ; 2 bytes @ 0xE
  1869  00000F                     	ds	2
  1870  000011                     
  1871                           ; 2 bytes @ 0x10
  1872  000011                     	ds	2
  1873  000013                     
  1874                           ; 3 bytes @ 0x12
  1875  000013                     	ds	3
  1876  000016                     ??_main:
  1877                           
  1878                           ; 0 bytes @ 0x15
  1879  000016                     	ds	2
  1880  000018                     main@lcd_mode:
  1881                           	opt stack 0
  1882                           
  1883                           ; 1 bytes @ 0x17
  1884  000018                     	ds	1
  1885                           postinc0	equ	0xFEE
  1886                           postdec1	equ	0xFE5
  1887                           fsr1h	equ	0xFE2
  1888                           fsr1l	equ	0xFE1
  1889                           
  1890 ;;
  1891 ;;Main: autosize = 0, tempsize = 2, incstack = 0, save=0
  1892 ;;
  1893 ;; *************** function _main *****************
  1894 ;; Defined at:
  1895 ;;		line 334 in file "newmain.c"
  1896 ;; Parameters:    Size  Location     Type
  1897 ;;  argc            2   16[COMRAM] int 
  1898 ;;  argv            3   18[COMRAM] PTR PTR unsigned char 
  1899 ;; Auto vars:     Size  Location     Type
  1900 ;;  lcd_mode        1   23[COMRAM] unsigned char 
  1901 ;; Return value:  Size  Location     Type
  1902 ;;                  2   16[COMRAM] int 
  1903 ;; Registers used:
  1904 ;;		wreg, fsr2l, fsr2h, status,2, status,0, tblptrl, tblptrh, tblptru, prodl, prodh, cstack
  1905 ;; Tracked objects:
  1906 ;;		On entry : 0/0
  1907 ;;		On exit  : 0/0
  1908 ;;		Unchanged: 0/0
  1909 ;; Data sizes:     COMRAM   BANK0   BANK1   BANK2   BANK3   BANK4   BANK5   BANK6   BANK7   BANK8   BANK9  BANK10  BANK1
      +1  BANK12  BANK13  BANK14  BANK15
  1910 ;;      Params:         5       0       0       0       0       0       0       0       0       0       0       0       
      +0       0       0       0       0
  1911 ;;      Locals:         1       0       0       0       0       0       0       0       0       0       0       0       
      +0       0       0       0       0
  1912 ;;      Temps:          2       0       0       0       0       0       0       0       0       0       0       0       
      +0       0       0       0       0
  1913 ;;      Totals:         8       0       0       0       0       0       0       0       0       0       0       0       
      +0       0       0       0       0
  1914 ;;Total ram usage:        8 bytes
  1915 ;; Hardware stack levels required when called:    3
  1916 ;; This function calls:
  1917 ;;		_delay_ms
  1918 ;;		_lcd_bitmap
  1919 ;;		_lcd_clear
  1920 ;;		_lcd_cursor
  1921 ;;		_lcd_init
  1922 ;;		_lcd_put
  1923 ;;		_lcd_puts
  1924 ;;		_lcd_puts_large
  1925 ;;		_lcd_refresh
  1926 ;;		_platform_init
  1927 ;; This function is called by:
  1928 ;;		Startup code after reset
  1929 ;; This function uses a non-reentrant model
  1930 ;;
  1931                           
  1932                           	psect	text0
  1933  00F754                     __ptext0:
  1934                           	opt stack 0
  1935  00F754                     _main:
  1936                           	opt stack 28
  1937                           
  1938                           ;newmain.c: 335: platform_init();
  1939                           
  1940                           ;incstack = 0
  1941  00F754  EC0B  F079         	call	_platform_init	;wreg free
  1942                           
  1943                           ;newmain.c: 338: SSPCON1bits.SSPM = 0;
  1944  00F758  90C6               	bcf	4038,0,c	;volatile
  1945  00F75A  92C6               	bcf	4038,1,c	;volatile
  1946  00F75C  94C6               	bcf	4038,2,c	;volatile
  1947  00F75E  96C6               	bcf	4038,3,c	;volatile
  1948                           
  1949                           ;newmain.c: 339: SSPSTATbits.CKE = 1;
  1950  00F760  8CC7               	bsf	4039,6,c	;volatile
  1951                           
  1952                           ;newmain.c: 340: SSPCON1bits.SSPEN = 1;
  1953  00F762  8AC6               	bsf	4038,5,c	;volatile
  1954                           
  1955                           ;newmain.c: 342: lcd_init();
  1956  00F764  ECE0  F079         	call	_lcd_init	;wreg free
  1957                           
  1958                           ;newmain.c: 343: lcd_clear();
  1959  00F768  ECFC  F078         	call	_lcd_clear	;wreg free
  1960                           
  1961                           ;newmain.c: 344: lcd_bitmap(se_logo, 127, 6);
  1962  00F76C  0EFC               	movlw	high _se_logo
  1963  00F76E  6E02               	movwf	lcd_bitmap@gfx+1,c
  1964  00F770  0E5F               	movlw	low _se_logo
  1965  00F772  6E01               	movwf	lcd_bitmap@gfx,c
  1966  00F774  6E16               	movwf	??_main& (0+255),c
  1967  00F776  0E7F               	movlw	127
  1968  00F778  6E03               	movwf	lcd_bitmap@x_size,c
  1969  00F77A  5016               	movf	??_main& (0+255),w,c
  1970  00F77C  6E17               	movwf	(??_main+1)& (0+255),c
  1971  00F77E  0E06               	movlw	6
  1972  00F780  6E04               	movwf	lcd_bitmap@line_size,c
  1973  00F782  5017               	movf	(??_main+1)& (0+255),w,c
  1974  00F784  EC29  F07A         	call	_lcd_bitmap	;wreg free
  1975                           
  1976                           ;newmain.c: 345: lcd_cursor(0, 6);
  1977  00F788  6E16               	movwf	??_main& (0+255),c
  1978  00F78A  0E06               	movlw	6
  1979  00F78C  6E01               	movwf	lcd_cursor@line,c
  1980  00F78E  5016               	movf	??_main& (0+255),w,c
  1981  00F790  0E00               	movlw	0
  1982  00F792  ECEC  F078         	call	_lcd_cursor
  1983                           
  1984                           ;newmain.c: 346: lcd_puts("MPPT charger");
  1985  00F796  0EFF               	movlw	high STR_1
  1986  00F798  6E10               	movwf	lcd_puts@s+1,c
  1987  00F79A  0E86               	movlw	low STR_1
  1988  00F79C  6E0F               	movwf	lcd_puts@s,c
  1989  00F79E  EC54  F079         	call	_lcd_puts	;wreg free
  1990                           
  1991                           ;newmain.c: 347: lcd_cursor(0, 7);
  1992  00F7A2  6E16               	movwf	??_main& (0+255),c
  1993  00F7A4  0E07               	movlw	7
  1994  00F7A6  6E01               	movwf	lcd_cursor@line,c
  1995  00F7A8  5016               	movf	??_main& (0+255),w,c
  1996  00F7AA  0E00               	movlw	0
  1997  00F7AC  ECEC  F078         	call	_lcd_cursor
  1998                           
  1999                           ;newmain.c: 348: lcd_puts("HW 0.2, SW 0.2");
  2000  00F7B0  0EFF               	movlw	high STR_2
  2001  00F7B2  6E10               	movwf	lcd_puts@s+1,c
  2002  00F7B4  0E69               	movlw	low STR_2
  2003  00F7B6  6E0F               	movwf	lcd_puts@s,c
  2004  00F7B8  EC54  F079         	call	_lcd_puts	;wreg free
  2005                           
  2006                           ;newmain.c: 349: lcd_refresh();
  2007  00F7BC  ECA3  F079         	call	_lcd_refresh	;wreg free
  2008                           
  2009                           ;newmain.c: 350: delay_ms(2000);
  2010  00F7C0  0E07               	movlw	7
  2011  00F7C2  6E02               	movwf	delay_ms@n+1,c
  2012  00F7C4  0ED0               	movlw	208
  2013  00F7C6  6E01               	movwf	delay_ms@n,c
  2014  00F7C8  EC29  F079         	call	_delay_ms	;wreg free
  2015                           
  2016                           ;newmain.c: 356: uint8_t lcd_mode = 0;
  2017  00F7CC  6E16               	movwf	??_main& (0+255),c
  2018  00F7CE  0E00               	movlw	0
  2019  00F7D0  6E18               	movwf	main@lcd_mode,c
  2020  00F7D2  5016               	movf	??_main& (0+255),w,c
  2021  00F7D4                     l994:
  2022                           
  2023                           ;newmain.c: 359: lcd_clear();
  2024  00F7D4  ECFC  F078         	call	_lcd_clear	;wreg free
  2025                           
  2026                           ;newmain.c: 364: switch (lcd_mode){
  2027  00F7D8  D0CF               	goto	l1040
  2028  00F7DA                     l996:
  2029                           
  2030                           ;newmain.c: 366: lcd_cursor(20, 0); lcd_puts("- Measurement -");
  2031  00F7DA  6E16               	movwf	??_main& (0+255),c
  2032  00F7DC  0E00               	movlw	0
  2033  00F7DE  6E01               	movwf	lcd_cursor@line,c
  2034  00F7E0  5016               	movf	??_main& (0+255),w,c
  2035  00F7E2  0E14               	movlw	20
  2036  00F7E4  ECEC  F078         	call	_lcd_cursor
  2037  00F7E8  0EFF               	movlw	high STR_3
  2038  00F7EA  6E10               	movwf	lcd_puts@s+1,c
  2039  00F7EC  0E59               	movlw	low STR_3
  2040  00F7EE  6E0F               	movwf	lcd_puts@s,c
  2041  00F7F0  EC54  F079         	call	_lcd_puts	;wreg free
  2042                           
  2043                           ;newmain.c: 367: lcd_cursor(0, 1); lcd_puts("State"); lcd_cursor(64, 1); lcd_puts("CHG");
  2044  00F7F4  6E16               	movwf	??_main& (0+255),c
  2045  00F7F6  0E01               	movlw	1
  2046  00F7F8  6E01               	movwf	lcd_cursor@line,c
  2047  00F7FA  5016               	movf	??_main& (0+255),w,c
  2048  00F7FC  0E00               	movlw	0
  2049  00F7FE  ECEC  F078         	call	_lcd_cursor
  2050  00F802  0EFF               	movlw	high STR_4
  2051  00F804  6E10               	movwf	lcd_puts@s+1,c
  2052  00F806  0EEE               	movlw	low STR_4
  2053  00F808  6E0F               	movwf	lcd_puts@s,c
  2054  00F80A  EC54  F079         	call	_lcd_puts	;wreg free
  2055  00F80E  6E16               	movwf	??_main& (0+255),c
  2056  00F810  0E01               	movlw	1
  2057  00F812  6E01               	movwf	lcd_cursor@line,c
  2058  00F814  5016               	movf	??_main& (0+255),w,c
  2059  00F816  0E40               	movlw	64
  2060  00F818  ECEC  F078         	call	_lcd_cursor
  2061  00F81C  0EFF               	movlw	high STR_5
  2062  00F81E  6E10               	movwf	lcd_puts@s+1,c
  2063  00F820  0EF8               	movlw	low STR_5
  2064  00F822  6E0F               	movwf	lcd_puts@s,c
  2065  00F824  EC54  F079         	call	_lcd_puts	;wreg free
  2066                           
  2067                           ;newmain.c: 368: lcd_cursor(0, 2); lcd_puts("PV"); lcd_cursor(64, 2); lcd_puts("18.51");
      +                           lcd_put('V');
  2068  00F828  6E16               	movwf	??_main& (0+255),c
  2069  00F82A  0E02               	movlw	2
  2070  00F82C  6E01               	movwf	lcd_cursor@line,c
  2071  00F82E  5016               	movf	??_main& (0+255),w,c
  2072  00F830  0E00               	movlw	0
  2073  00F832  ECEC  F078         	call	_lcd_cursor
  2074  00F836  0EFF               	movlw	high STR_6
  2075  00F838  6E10               	movwf	lcd_puts@s+1,c
  2076  00F83A  0EFC               	movlw	low STR_6
  2077  00F83C  6E0F               	movwf	lcd_puts@s,c
  2078  00F83E  EC54  F079         	call	_lcd_puts	;wreg free
  2079  00F842  6E16               	movwf	??_main& (0+255),c
  2080  00F844  0E02               	movlw	2
  2081  00F846  6E01               	movwf	lcd_cursor@line,c
  2082  00F848  5016               	movf	??_main& (0+255),w,c
  2083  00F84A  0E40               	movlw	64
  2084  00F84C  ECEC  F078         	call	_lcd_cursor
  2085  00F850  0EFF               	movlw	high STR_7
  2086  00F852  6E10               	movwf	lcd_puts@s+1,c
  2087  00F854  0EDC               	movlw	low STR_7
  2088  00F856  6E0F               	movwf	lcd_puts@s,c
  2089  00F858  EC54  F079         	call	_lcd_puts	;wreg free
  2090  00F85C  0E56               	movlw	86
  2091  00F85E  EC76  F07A         	call	_lcd_put
  2092                           
  2093                           ;newmain.c: 369: lcd_cursor(0, 3); lcd_puts("Battery"); lcd_cursor(64, 3); lcd_puts("12.
      +                          54"); lcd_put('V');
  2094  00F862  6E16               	movwf	??_main& (0+255),c
  2095  00F864  0E03               	movlw	3
  2096  00F866  6E01               	movwf	lcd_cursor@line,c
  2097  00F868  5016               	movf	??_main& (0+255),w,c
  2098  00F86A  0E00               	movlw	0
  2099  00F86C  ECEC  F078         	call	_lcd_cursor
  2100  00F870  0EFF               	movlw	high STR_8
  2101  00F872  6E10               	movwf	lcd_puts@s+1,c
  2102  00F874  0ECD               	movlw	low STR_8
  2103  00F876  6E0F               	movwf	lcd_puts@s,c
  2104  00F878  EC54  F079         	call	_lcd_puts	;wreg free
  2105  00F87C  6E16               	movwf	??_main& (0+255),c
  2106  00F87E  0E03               	movlw	3
  2107  00F880  6E01               	movwf	lcd_cursor@line,c
  2108  00F882  5016               	movf	??_main& (0+255),w,c
  2109  00F884  0E40               	movlw	64
  2110  00F886  ECEC  F078         	call	_lcd_cursor
  2111  00F88A  0EFF               	movlw	high STR_9
  2112  00F88C  6E10               	movwf	lcd_puts@s+1,c
  2113  00F88E  0EE8               	movlw	low STR_9
  2114  00F890  6E0F               	movwf	lcd_puts@s,c
  2115  00F892  EC54  F079         	call	_lcd_puts	;wreg free
  2116  00F896  0E56               	movlw	86
  2117  00F898  EC76  F07A         	call	_lcd_put
  2118                           
  2119                           ;newmain.c: 371: lcd_cursor(0, 4); lcd_puts("To bat.");
  2120  00F89C  6E16               	movwf	??_main& (0+255),c
  2121  00F89E  0E04               	movlw	4
  2122  00F8A0  6E01               	movwf	lcd_cursor@line,c
  2123  00F8A2  5016               	movf	??_main& (0+255),w,c
  2124  00F8A4  0E00               	movlw	0
  2125  00F8A6  ECEC  F078         	call	_lcd_cursor
  2126  00F8AA  0EFF               	movlw	high STR_10
  2127  00F8AC  6E10               	movwf	lcd_puts@s+1,c
  2128  00F8AE  0EBD               	movlw	low STR_10
  2129  00F8B0  6E0F               	movwf	lcd_puts@s,c
  2130  00F8B2  EC54  F079         	call	_lcd_puts	;wreg free
  2131                           
  2132                           ;newmain.c: 372: lcd_cursor(0, 5); lcd_puts(" 0.81A"); lcd_cursor(64, 5); lcd_puts_large
      +                          ("7.5"); lcd_put('W');
  2133  00F8B6  6E16               	movwf	??_main& (0+255),c
  2134  00F8B8  0E05               	movlw	5
  2135  00F8BA  6E01               	movwf	lcd_cursor@line,c
  2136  00F8BC  5016               	movf	??_main& (0+255),w,c
  2137  00F8BE  0E00               	movlw	0
  2138  00F8C0  ECEC  F078         	call	_lcd_cursor
  2139  00F8C4  0EFF               	movlw	high STR_11
  2140  00F8C6  6E10               	movwf	lcd_puts@s+1,c
  2141  00F8C8  0ED5               	movlw	low STR_11
  2142  00F8CA  6E0F               	movwf	lcd_puts@s,c
  2143  00F8CC  EC54  F079         	call	_lcd_puts	;wreg free
  2144  00F8D0  6E16               	movwf	??_main& (0+255),c
  2145  00F8D2  0E05               	movlw	5
  2146  00F8D4  6E01               	movwf	lcd_cursor@line,c
  2147  00F8D6  5016               	movf	??_main& (0+255),w,c
  2148  00F8D8  0E40               	movlw	64
  2149  00F8DA  ECEC  F078         	call	_lcd_cursor
  2150  00F8DE  0EFF               	movlw	high STR_12
  2151  00F8E0  6E0E               	movwf	lcd_puts_large@s+1,c
  2152  00F8E2  0EF4               	movlw	low STR_12
  2153  00F8E4  6E0D               	movwf	lcd_puts_large@s,c
  2154  00F8E6  EC6D  F079         	call	_lcd_puts_large	;wreg free
  2155  00F8EA  0E57               	movlw	87
  2156  00F8EC  EC76  F07A         	call	_lcd_put
  2157                           
  2158                           ;newmain.c: 374: lcd_cursor(0, 6); lcd_puts("From bat.");
  2159  00F8F0  6E16               	movwf	??_main& (0+255),c
  2160  00F8F2  0E06               	movlw	6
  2161  00F8F4  6E01               	movwf	lcd_cursor@line,c
  2162  00F8F6  5016               	movf	??_main& (0+255),w,c
  2163  00F8F8  0E00               	movlw	0
  2164  00F8FA  ECEC  F078         	call	_lcd_cursor
  2165  00F8FE  0EFF               	movlw	high STR_13
  2166  00F900  6E10               	movwf	lcd_puts@s+1,c
  2167  00F902  0E9F               	movlw	low STR_13
  2168  00F904  6E0F               	movwf	lcd_puts@s,c
  2169  00F906  EC54  F079         	call	_lcd_puts	;wreg free
  2170                           
  2171                           ;newmain.c: 375: lcd_cursor(0, 7); lcd_puts(" 22.27A"); lcd_cursor(64, 7); lcd_puts_larg
      +                          e("127.3"); lcd_put('W');
  2172  00F90A  6E16               	movwf	??_main& (0+255),c
  2173  00F90C  0E07               	movlw	7
  2174  00F90E  6E01               	movwf	lcd_cursor@line,c
  2175  00F910  5016               	movf	??_main& (0+255),w,c
  2176  00F912  0E00               	movlw	0
  2177  00F914  ECEC  F078         	call	_lcd_cursor
  2178  00F918  0EFF               	movlw	high STR_14
  2179  00F91A  6E10               	movwf	lcd_puts@s+1,c
  2180  00F91C  0EC5               	movlw	low STR_14
  2181  00F91E  6E0F               	movwf	lcd_puts@s,c
  2182  00F920  EC54  F079         	call	_lcd_puts	;wreg free
  2183  00F924  6E16               	movwf	??_main& (0+255),c
  2184  00F926  0E07               	movlw	7
  2185  00F928  6E01               	movwf	lcd_cursor@line,c
  2186  00F92A  5016               	movf	??_main& (0+255),w,c
  2187  00F92C  0E40               	movlw	64
  2188  00F92E  ECEC  F078         	call	_lcd_cursor
  2189  00F932  0EFF               	movlw	high STR_15
  2190  00F934  6E0E               	movwf	lcd_puts_large@s+1,c
  2191  00F936  0EE2               	movlw	low STR_15
  2192  00F938  6E0D               	movwf	lcd_puts_large@s,c
  2193  00F93A  EC6D  F079         	call	_lcd_puts_large	;wreg free
  2194  00F93E  0E57               	movlw	87
  2195  00F940  EC76  F07A         	call	_lcd_put
  2196                           
  2197                           ;newmain.c: 376: break;
  2198  00F944  D023               	goto	l1042
  2199  00F946                     l1038:
  2200                           
  2201                           ;newmain.c: 385: lcd_puts("OUT_1 OFF");
  2202  00F946  0EFF               	movlw	high STR_16
  2203  00F948  6E10               	movwf	lcd_puts@s+1,c
  2204  00F94A  0EA9               	movlw	low STR_16
  2205  00F94C  6E0F               	movwf	lcd_puts@s,c
  2206  00F94E  EC54  F079         	call	_lcd_puts	;wreg free
  2207                           
  2208                           ;newmain.c: 386: lcd_puts("OUT_2 OFF");
  2209  00F952  0EFF               	movlw	high STR_17
  2210  00F954  6E10               	movwf	lcd_puts@s+1,c
  2211  00F956  0EB3               	movlw	low STR_17
  2212  00F958  6E0F               	movwf	lcd_puts@s,c
  2213  00F95A  EC54  F079         	call	_lcd_puts	;wreg free
  2214                           
  2215                           ;newmain.c: 387: lcd_puts("BACKLIGHT OFF");
  2216  00F95E  0EFF               	movlw	high STR_18
  2217  00F960  6E10               	movwf	lcd_puts@s+1,c
  2218  00F962  0E78               	movlw	low STR_18
  2219  00F964  6E0F               	movwf	lcd_puts@s,c
  2220  00F966  EC54  F079         	call	_lcd_puts	;wreg free
  2221                           
  2222                           ;newmain.c: 388: lcd_puts("RESET_STATS");
  2223  00F96A  0EFF               	movlw	high STR_19
  2224  00F96C  6E10               	movwf	lcd_puts@s+1,c
  2225  00F96E  0E93               	movlw	low STR_19
  2226  00F970  6E0F               	movwf	lcd_puts@s,c
  2227  00F972  EC54  F079         	call	_lcd_puts	;wreg free
  2228                           
  2229                           ;newmain.c: 389: }
  2230  00F976  D00A               	goto	l1042
  2231  00F978                     l1040:
  2232  00F978  5018               	movf	main@lcd_mode,w,c
  2233                           
  2234                           ; Switch size 1, requested type "space"
  2235                           ; Number of cases is 3, Range of values is 0 to 2
  2236                           ; switch strategies available:
  2237                           ; Name         Instructions Cycles
  2238                           ; simple_byte           10     6 (average)
  2239                           ;	Chosen strategy is simple_byte
  2240  00F97A  0A00               	xorlw	0	; case 0
  2241  00F97C  B4D8               	btfsc	status,2,c
  2242  00F97E  D72D               	goto	l996
  2243  00F980  0A01               	xorlw	1	; case 1
  2244  00F982  B4D8               	btfsc	status,2,c
  2245  00F984  D003               	goto	l1042
  2246  00F986  0A03               	xorlw	3	; case 2
  2247  00F988  B4D8               	btfsc	status,2,c
  2248  00F98A  D7DD               	goto	l1038
  2249  00F98C                     l1042:
  2250                           
  2251                           ;newmain.c: 390: lcd_refresh();
  2252  00F98C  ECA3  F079         	call	_lcd_refresh	;wreg free
  2253                           
  2254                           ;newmain.c: 391: delay_ms(500);
  2255  00F990  0E01               	movlw	1
  2256  00F992  6E02               	movwf	delay_ms@n+1,c
  2257  00F994  0EF4               	movlw	244
  2258  00F996  6E01               	movwf	delay_ms@n,c
  2259  00F998  EC29  F079         	call	_delay_ms	;wreg free
  2260  00F99C  D71B               	goto	l994
  2261  00F99E                     __end_of_main:
  2262                           	opt stack 0
  2263                           postinc0	equ	0xFEE
  2264                           postdec1	equ	0xFE5
  2265                           fsr1h	equ	0xFE2
  2266                           fsr1l	equ	0xFE1
  2267                           status	equ	0xFD8
  2268                           
  2269 ;; *************** function _platform_init *****************
  2270 ;; Defined at:
  2271 ;;		line 5 in file "platform.c"
  2272 ;; Parameters:    Size  Location     Type
  2273 ;;		None
  2274 ;; Auto vars:     Size  Location     Type
  2275 ;;		None
  2276 ;; Return value:  Size  Location     Type
  2277 ;;		None               void
  2278 ;; Registers used:
  2279 ;;		wreg, status,2
  2280 ;; Tracked objects:
  2281 ;;		On entry : 0/0
  2282 ;;		On exit  : 0/0
  2283 ;;		Unchanged: 0/0
  2284 ;; Data sizes:     COMRAM   BANK0   BANK1   BANK2   BANK3   BANK4   BANK5   BANK6   BANK7   BANK8   BANK9  BANK10  BANK1
      +1  BANK12  BANK13  BANK14  BANK15
  2285 ;;      Params:         0       0       0       0       0       0       0       0       0       0       0       0       
      +0       0       0       0       0
  2286 ;;      Locals:         0       0       0       0       0       0       0       0       0       0       0       0       
      +0       0       0       0       0
  2287 ;;      Temps:          0       0       0       0       0       0       0       0       0       0       0       0       
      +0       0       0       0       0
  2288 ;;      Totals:         0       0       0       0       0       0       0       0       0       0       0       0       
      +0       0       0       0       0
  2289 ;;Total ram usage:        0 bytes
  2290 ;; Hardware stack levels used:    1
  2291 ;; This function calls:
  2292 ;;		Nothing
  2293 ;; This function is called by:
  2294 ;;		_main
  2295 ;; This function uses a non-reentrant model
  2296 ;;
  2297                           
  2298                           	psect	text1
  2299  00F216                     __ptext1:
  2300                           	opt stack 0
  2301  00F216                     _platform_init:
  2302                           	opt stack 30
  2303                           
  2304                           ;platform.c: 7: OSCCONbits.IRCF = 0b111;
  2305                           
  2306                           ;incstack = 0
  2307  00F216  88D3               	bsf	4051,4,c	;volatile
  2308  00F218  8AD3               	bsf	4051,5,c	;volatile
  2309  00F21A  8CD3               	bsf	4051,6,c	;volatile
  2310                           
  2311                           ;platform.c: 8: OSCCONbits.OSTS = 0;
  2312  00F21C  96D3               	bcf	4051,3,c	;volatile
  2313                           
  2314                           ;platform.c: 9: OSCCONbits.SCS = 0b10;
  2315  00F21E  50D3               	movf	4051,w,c	;volatile
  2316  00F220  0BFC               	andlw	-4
  2317  00F222  0902               	iorlw	2
  2318  00F224  6ED3               	movwf	4051,c	;volatile
  2319                           
  2320                           ;platform.c: 10: OSCTUNEbits.PLLEN = 0;
  2321  00F226  9C9B               	bcf	3995,6,c	;volatile
  2322                           
  2323                           ;platform.c: 13: TRISA = 0b11111111;
  2324  00F228  6892               	setf	3986,c	;volatile
  2325                           
  2326                           ;platform.c: 14: TRISB = 0b11111000;
  2327  00F22A  0EF8               	movlw	248
  2328  00F22C  6E93               	movwf	3987,c	;volatile
  2329                           
  2330                           ;platform.c: 15: TRISC = 0b11010111;
  2331  00F22E  0ED7               	movlw	215
  2332  00F230  6E94               	movwf	3988,c	;volatile
  2333  00F232  0012               	return	
  2334  00F234                     __end_of_platform_init:
  2335                           	opt stack 0
  2336                           postinc0	equ	0xFEE
  2337                           postdec1	equ	0xFE5
  2338                           fsr1h	equ	0xFE2
  2339                           fsr1l	equ	0xFE1
  2340                           status	equ	0xFD8
  2341                           
  2342 ;; *************** function _lcd_refresh *****************
  2343 ;; Defined at:
  2344 ;;		line 319 in file "newmain.c"
  2345 ;; Parameters:    Size  Location     Type
  2346 ;;		None
  2347 ;; Auto vars:     Size  Location     Type
  2348 ;;  y               1    6[COMRAM] unsigned char 
  2349 ;;  x               1    5[COMRAM] unsigned char 
  2350 ;; Return value:  Size  Location     Type
  2351 ;;		None               void
  2352 ;; Registers used:
  2353 ;;		wreg, fsr2l, fsr2h, status,2, status,0, cstack
  2354 ;; Tracked objects:
  2355 ;;		On entry : 0/0
  2356 ;;		On exit  : 0/0
  2357 ;;		Unchanged: 0/0
  2358 ;; Data sizes:     COMRAM   BANK0   BANK1   BANK2   BANK3   BANK4   BANK5   BANK6   BANK7   BANK8   BANK9  BANK10  BANK1
      +1  BANK12  BANK13  BANK14  BANK15
  2359 ;;      Params:         0       0       0       0       0       0       0       0       0       0       0       0       
      +0       0       0       0       0
  2360 ;;      Locals:         2       0       0       0       0       0       0       0       0       0       0       0       
      +0       0       0       0       0
  2361 ;;      Temps:          4       0       0       0       0       0       0       0       0       0       0       0       
      +0       0       0       0       0
  2362 ;;      Totals:         6       0       0       0       0       0       0       0       0       0       0       0       
      +0       0       0       0       0
  2363 ;;Total ram usage:        6 bytes
  2364 ;; Hardware stack levels used:    1
  2365 ;; Hardware stack levels required when called:    1
  2366 ;; This function calls:
  2367 ;;		_spi
  2368 ;; This function is called by:
  2369 ;;		_main
  2370 ;; This function uses a non-reentrant model
  2371 ;;
  2372                           
  2373                           	psect	text2
  2374  00F346                     __ptext2:
  2375                           	opt stack 0
  2376  00F346                     _lcd_refresh:
  2377                           	opt stack 29
  2378                           
  2379                           ;newmain.c: 320: uint8_t x, y;
  2380                           ;newmain.c: 321: for (y=0; y<8; y++){
  2381                           
  2382                           ;incstack = 0
  2383  00F346  6E02               	movwf	??_lcd_refresh& (0+255),c
  2384  00F348  0E00               	movlw	0
  2385  00F34A  6E07               	movwf	lcd_refresh@y,c
  2386  00F34C  5002               	movf	??_lcd_refresh& (0+255),w,c
  2387  00F34E  D034               	goto	L2
  2388  00F350                     l90:
  2389                           
  2390                           ;newmain.c: 322: LATBbits.LATB2 = 0;
  2391  00F350  948A               	bcf	3978,2,c	;volatile
  2392                           
  2393                           ;newmain.c: 323: LATBbits.LATB0 = 0;
  2394  00F352  908A               	bcf	3978,0,c	;volatile
  2395                           
  2396                           ;newmain.c: 324: spi(0xB0 | y);
  2397  00F354  5007               	movf	lcd_refresh@y,w,c
  2398  00F356  09B0               	iorlw	176
  2399  00F358  ECF3  F078         	call	_spi
  2400                           
  2401                           ;newmain.c: 325: spi(0x00|0);
  2402  00F35C  0E00               	movlw	0
  2403  00F35E  ECF3  F078         	call	_spi
  2404                           
  2405                           ;newmain.c: 326: spi(0x10);
  2406  00F362  0E10               	movlw	16
  2407  00F364  ECF3  F078         	call	_spi
  2408                           
  2409                           ;newmain.c: 327: spi(0xE0);
  2410  00F368  0EE0               	movlw	224
  2411  00F36A  ECF3  F078         	call	_spi
  2412                           
  2413                           ;newmain.c: 328: LATBbits.LATB2 = 1;
  2414  00F36E  848A               	bsf	3978,2,c	;volatile
  2415                           
  2416                           ;newmain.c: 329: for(x=0; x<128; x++) spi(lcd_buf[x+(y*128)]);
  2417  00F370  6E02               	movwf	??_lcd_refresh& (0+255),c
  2418  00F372  0E00               	movlw	0
  2419  00F374  6E06               	movwf	lcd_refresh@x,c
  2420  00F376  5002               	movf	??_lcd_refresh& (0+255),w,c
  2421  00F378  D01A               	goto	L1
  2422  00F37A                     l948:
  2423  00F37A  5007               	movf	lcd_refresh@y,w,c
  2424  00F37C  6E02               	movwf	??_lcd_refresh& (0+255),c
  2425  00F37E  6A03               	clrf	(??_lcd_refresh+1)& (0+255),c
  2426  00F380  0E07               	movlw	7
  2427  00F382                     u275:
  2428  00F382  90D8               	bcf	status,0,c
  2429  00F384  3602               	rlcf	??_lcd_refresh,f,c
  2430  00F386  3603               	rlcf	??_lcd_refresh+1,f,c
  2431  00F388  2EE8               	decfsz	wreg,f,c
  2432  00F38A  D7FB               	goto	u275
  2433  00F38C  5006               	movf	lcd_refresh@x,w,c
  2434  00F38E  6E04               	movwf	(??_lcd_refresh+2)& (0+255),c
  2435  00F390  6A05               	clrf	(??_lcd_refresh+3)& (0+255),c
  2436  00F392  5002               	movf	??_lcd_refresh,w,c
  2437  00F394  2604               	addwf	??_lcd_refresh+2,f,c
  2438  00F396  5003               	movf	??_lcd_refresh+1,w,c
  2439  00F398  2205               	addwfc	??_lcd_refresh+3,f,c
  2440  00F39A  0E80               	movlw	low _lcd_buf
  2441  00F39C  2404               	addwf	??_lcd_refresh+2,w,c
  2442  00F39E  6ED9               	movwf	fsr2l,c
  2443  00F3A0  0E0B               	movlw	high _lcd_buf
  2444  00F3A2  2005               	addwfc	??_lcd_refresh+3,w,c
  2445  00F3A4  6EDA               	movwf	fsr2h,c
  2446  00F3A6  50DF               	movf	indf2,w,c
  2447  00F3A8  ECF3  F078         	call	_spi
  2448  00F3AC  2A06               	incf	lcd_refresh@x,f,c
  2449  00F3AE                     L1:
  2450  00F3AE  0E7F               	movlw	127
  2451  00F3B0  6406               	cpfsgt	lcd_refresh@x,c
  2452  00F3B2  D7E3               	goto	l948
  2453                           
  2454                           ;newmain.c: 330: LATBbits.LATB0 = 1;
  2455  00F3B4  808A               	bsf	3978,0,c	;volatile
  2456  00F3B6  2A07               	incf	lcd_refresh@y,f,c
  2457  00F3B8                     L2:
  2458  00F3B8  0E07               	movlw	7
  2459  00F3BA  6407               	cpfsgt	lcd_refresh@y,c
  2460  00F3BC  D7C9               	goto	l90
  2461  00F3BE  0012               	return	
  2462  00F3C0                     __end_of_lcd_refresh:
  2463                           	opt stack 0
  2464                           postinc0	equ	0xFEE
  2465                           wreg	equ	0xFE8
  2466                           postdec1	equ	0xFE5
  2467                           fsr1h	equ	0xFE2
  2468                           fsr1l	equ	0xFE1
  2469                           indf2	equ	0xFDF
  2470                           fsr2h	equ	0xFDA
  2471                           fsr2l	equ	0xFD9
  2472                           status	equ	0xFD8
  2473                           
  2474 ;; *************** function _lcd_puts_large *****************
  2475 ;; Defined at:
  2476 ;;		line 273 in file "newmain.c"
  2477 ;; Parameters:    Size  Location     Type
  2478 ;;  s               2   12[COMRAM] PTR unsigned char 
  2479 ;;		 -> STR_15(6), STR_12(4), 
  2480 ;; Auto vars:     Size  Location     Type
  2481 ;;		None
  2482 ;; Return value:  Size  Location     Type
  2483 ;;		None               void
  2484 ;; Registers used:
  2485 ;;		wreg, fsr2l, fsr2h, status,2, status,0, tblptrl, tblptrh, tblptru, prodl, prodh, cstack
  2486 ;; Tracked objects:
  2487 ;;		On entry : 0/0
  2488 ;;		On exit  : 0/0
  2489 ;;		Unchanged: 0/0
  2490 ;; Data sizes:     COMRAM   BANK0   BANK1   BANK2   BANK3   BANK4   BANK5   BANK6   BANK7   BANK8   BANK9  BANK10  BANK1
      +1  BANK12  BANK13  BANK14  BANK15
  2491 ;;      Params:         2       0       0       0       0       0       0       0       0       0       0       0       
      +0       0       0       0       0
  2492 ;;      Locals:         0       0       0       0       0       0       0       0       0       0       0       0       
      +0       0       0       0       0
  2493 ;;      Temps:          0       0       0       0       0       0       0       0       0       0       0       0       
      +0       0       0       0       0
  2494 ;;      Totals:         2       0       0       0       0       0       0       0       0       0       0       0       
      +0       0       0       0       0
  2495 ;;Total ram usage:        2 bytes
  2496 ;; Hardware stack levels used:    1
  2497 ;; Hardware stack levels required when called:    2
  2498 ;; This function calls:
  2499 ;;		_lcd_put_large
  2500 ;; This function is called by:
  2501 ;;		_main
  2502 ;; This function uses a non-reentrant model
  2503 ;;
  2504                           
  2505                           	psect	text3
  2506  00F2DA                     __ptext3:
  2507                           	opt stack 0
  2508  00F2DA                     _lcd_puts_large:
  2509                           	opt stack 28
  2510                           
  2511                           ;newmain.c: 274: while (*s) lcd_put_large(*(s++));
  2512                           
  2513                           ;incstack = 0
  2514  00F2DA  D00C               	goto	l874
  2515  00F2DC                     l870:
  2516  00F2DC  C00D  FFF6         	movff	lcd_puts_large@s,tblptrl
  2517  00F2E0  C00E  FFF7         	movff	lcd_puts_large@s+1,tblptrh
  2518  00F2E4  0E00               	movlw	low (__mediumconst shr (0+16))
  2519  00F2E6  6EF8               	movwf	tblptru,c
  2520  00F2E8  0008               	tblrd		*
  2521  00F2EA  50F5               	movf	tablat,w,c
  2522  00F2EC  ECDD  F07A         	call	_lcd_put_large
  2523  00F2F0  4A0D               	infsnz	lcd_puts_large@s,f,c
  2524  00F2F2  2A0E               	incf	lcd_puts_large@s+1,f,c
  2525  00F2F4                     l874:
  2526  00F2F4  C00D  FFF6         	movff	lcd_puts_large@s,tblptrl
  2527  00F2F8  C00E  FFF7         	movff	lcd_puts_large@s+1,tblptrh
  2528  00F2FC  0E00               	movlw	low (__mediumconst shr (0+16))
  2529  00F2FE  6EF8               	movwf	tblptru,c
  2530  00F300  0008               	tblrd		*
  2531  00F302  50F5               	movf	tablat,w,c
  2532  00F304  0900               	iorlw	0
  2533  00F306  B4D8               	btfsc	status,2,c
  2534  00F308  0012               	return	
  2535  00F30A  D7E8               	goto	l870
  2536  00F30C                     __end_of_lcd_puts_large:
  2537                           	opt stack 0
  2538                           tblptru	equ	0xFF8
  2539                           tblptrh	equ	0xFF7
  2540                           tblptrl	equ	0xFF6
  2541                           tablat	equ	0xFF5
  2542                           postinc0	equ	0xFEE
  2543                           wreg	equ	0xFE8
  2544                           postdec1	equ	0xFE5
  2545                           fsr1h	equ	0xFE2
  2546                           fsr1l	equ	0xFE1
  2547                           indf2	equ	0xFDF
  2548                           fsr2h	equ	0xFDA
  2549                           fsr2l	equ	0xFD9
  2550                           status	equ	0xFD8
  2551                           
  2552 ;; *************** function _lcd_put_large *****************
  2553 ;; Defined at:
  2554 ;;		line 245 in file "newmain.c"
  2555 ;; Parameters:    Size  Location     Type
  2556 ;;  c               1    wreg     unsigned char 
  2557 ;; Auto vars:     Size  Location     Type
  2558 ;;  c               1   10[COMRAM] unsigned char 
  2559 ;;  j               1   11[COMRAM] unsigned char 
  2560 ;; Return value:  Size  Location     Type
  2561 ;;		None               void
  2562 ;; Registers used:
  2563 ;;		wreg, fsr2l, fsr2h, status,2, status,0, tblptrl, tblptrh, tblptru, prodl, prodh, cstack
  2564 ;; Tracked objects:
  2565 ;;		On entry : 0/0
  2566 ;;		On exit  : 0/0
  2567 ;;		Unchanged: 0/0
  2568 ;; Data sizes:     COMRAM   BANK0   BANK1   BANK2   BANK3   BANK4   BANK5   BANK6   BANK7   BANK8   BANK9  BANK10  BANK1
      +1  BANK12  BANK13  BANK14  BANK15
  2569 ;;      Params:         0       0       0       0       0       0       0       0       0       0       0       0       
      +0       0       0       0       0
  2570 ;;      Locals:         2       0       0       0       0       0       0       0       0       0       0       0       
      +0       0       0       0       0
  2571 ;;      Temps:          4       0       0       0       0       0       0       0       0       0       0       0       
      +0       0       0       0       0
  2572 ;;      Totals:         6       0       0       0       0       0       0       0       0       0       0       0       
      +0       0       0       0       0
  2573 ;;Total ram usage:        6 bytes
  2574 ;; Hardware stack levels used:    1
  2575 ;; Hardware stack levels required when called:    1
  2576 ;; This function calls:
  2577 ;;		___wmul
  2578 ;; This function is called by:
  2579 ;;		_lcd_puts_large
  2580 ;; This function uses a non-reentrant model
  2581 ;;
  2582                           
  2583                           	psect	text4
  2584  00F5BA                     __ptext4:
  2585                           	opt stack 0
  2586  00F5BA                     _lcd_put_large:
  2587                           	opt stack 28
  2588                           
  2589                           ;incstack = 0
  2590                           ;lcd_put_large@c stored from wreg
  2591  00F5BA  CFE8 F00B          	movff	wreg,lcd_put_large@c
  2592                           
  2593                           ;newmain.c: 246: uint8_t j;
  2594                           ;newmain.c: 249: if (lcd_x > (128-7)){
  2595  00F5BE  0E79               	movlw	121
  2596  00F5C0  641A               	cpfsgt	_lcd_x,c
  2597  00F5C2  D006               	goto	l804
  2598                           
  2599                           ;newmain.c: 250: lcd_x = 0;
  2600  00F5C4  6E07               	movwf	??_lcd_put_large& (0+255),c
  2601  00F5C6  0E00               	movlw	0
  2602  00F5C8  6E1A               	movwf	_lcd_x,c
  2603  00F5CA  5007               	movf	??_lcd_put_large& (0+255),w,c
  2604                           
  2605                           ;newmain.c: 251: lcd_line+=2;
  2606  00F5CC  0E02               	movlw	2
  2607  00F5CE  2619               	addwf	_lcd_line,f,c
  2608  00F5D0                     l804:
  2609                           
  2610                           ;newmain.c: 252: }
  2611                           ;newmain.c: 253: if (lcd_line < 1) lcd_line = 1;
  2612  00F5D0  6619               	tstfsz	_lcd_line,c
  2613  00F5D2  D003               	goto	l808
  2614  00F5D4  6E07               	movwf	??_lcd_put_large& (0+255),c
  2615  00F5D6  0E01               	movlw	1
  2616  00F5D8  D005               	goto	L3
  2617  00F5DA                     l808:
  2618                           
  2619                           ;newmain.c: 254: else if (lcd_line > 7) lcd_line = 7;
  2620  00F5DA  0E07               	movlw	7
  2621  00F5DC  6419               	cpfsgt	_lcd_line,c
  2622  00F5DE  D004               	goto	l57
  2623  00F5E0  6E07               	movwf	??_lcd_put_large& (0+255),c
  2624  00F5E2  0E07               	movlw	7
  2625  00F5E4                     L3:
  2626  00F5E4  6E19               	movwf	_lcd_line,c
  2627  00F5E6  5007               	movf	??_lcd_put_large& (0+255),w,c
  2628  00F5E8                     l57:
  2629                           
  2630                           ;newmain.c: 257: for (j=0; j<7; j++){
  2631  00F5E8  6E07               	movwf	??_lcd_put_large& (0+255),c
  2632  00F5EA  0E00               	movlw	0
  2633  00F5EC  6E0C               	movwf	lcd_put_large@j,c
  2634  00F5EE  5007               	movf	??_lcd_put_large& (0+255),w,c
  2635  00F5F0  D039               	goto	L4
  2636  00F5F2                     l816:
  2637                           
  2638                           ;newmain.c: 258: lcd_buf[lcd_x+((lcd_line-1)*128)] = lcd_font_big[((c-0x2b)*7*2)+j];
  2639  00F5F2  0ED5               	movlw	213
  2640  00F5F4  240B               	addwf	lcd_put_large@c,w,c
  2641  00F5F6  6E01               	movwf	___wmul@multiplier,c
  2642  00F5F8  6A02               	clrf	___wmul@multiplier+1,c
  2643  00F5FA  0EFF               	movlw	255
  2644  00F5FC  2202               	addwfc	___wmul@multiplier+1,f,c
  2645  00F5FE  0E00               	movlw	0
  2646  00F600  6E04               	movwf	___wmul@multiplicand+1,c
  2647  00F602  0E0E               	movlw	14
  2648  00F604  6E03               	movwf	___wmul@multiplicand,c
  2649  00F606  EC86  F079         	call	___wmul	;wreg free
  2650  00F60A  500C               	movf	lcd_put_large@j,w,c
  2651  00F60C  2601               	addwf	?___wmul,f,c
  2652  00F60E  0E00               	movlw	0
  2653  00F610  2202               	addwfc	?___wmul+1,f,c
  2654  00F612  0E7F               	movlw	low _lcd_font_big
  2655  00F614  2401               	addwf	?___wmul,w,c
  2656  00F616  6EF6               	movwf	tblptrl,c
  2657  00F618  0EFB               	movlw	high _lcd_font_big
  2658  00F61A  2002               	addwfc	?___wmul+1,w,c
  2659  00F61C  6EF7               	movwf	tblptrh,c
  2660  00F61E  6AF8               	clrf	tblptru,c
  2661  00F620  0E00               	movlw	low (__mediumconst shr (0+16))
  2662  00F622  22F8               	addwfc	tblptru,f,c
  2663  00F624  0E80               	movlw	128
  2664  00F626  6E07               	movwf	??_lcd_put_large& (0+255),c
  2665  00F628  0EFF               	movlw	255
  2666  00F62A  6E08               	movwf	(??_lcd_put_large+1)& (0+255),c
  2667  00F62C  5019               	movf	_lcd_line,w,c
  2668  00F62E  6E09               	movwf	(??_lcd_put_large+2)& (0+255),c
  2669  00F630  6A0A               	clrf	(??_lcd_put_large+3)& (0+255),c
  2670  00F632  0E07               	movlw	7
  2671  00F634                     u125:
  2672  00F634  90D8               	bcf	status,0,c
  2673  00F636  3609               	rlcf	??_lcd_put_large+2,f,c
  2674  00F638  360A               	rlcf	??_lcd_put_large+3,f,c
  2675  00F63A  2EE8               	decfsz	wreg,f,c
  2676  00F63C  D7FB               	goto	u125
  2677  00F63E  501A               	movf	_lcd_x,w,c
  2678  00F640  2609               	addwf	??_lcd_put_large+2,f,c
  2679  00F642  0E00               	movlw	0
  2680  00F644  220A               	addwfc	??_lcd_put_large+3,f,c
  2681  00F646  5007               	movf	??_lcd_put_large,w,c
  2682  00F648  2609               	addwf	??_lcd_put_large+2,f,c
  2683  00F64A  5008               	movf	??_lcd_put_large+1,w,c
  2684  00F64C  220A               	addwfc	??_lcd_put_large+3,f,c
  2685  00F64E  0E80               	movlw	low _lcd_buf
  2686  00F650  2409               	addwf	??_lcd_put_large+2,w,c
  2687  00F652  6ED9               	movwf	fsr2l,c
  2688  00F654  0E0B               	movlw	high _lcd_buf
  2689  00F656  200A               	addwfc	??_lcd_put_large+3,w,c
  2690  00F658  6EDA               	movwf	fsr2h,c
  2691  00F65A  0008               	tblrd		*
  2692  00F65C  CFF5 FFDF          	movff	tablat,indf2
  2693                           
  2694                           ;newmain.c: 259: lcd_x++;
  2695  00F660  2A1A               	incf	_lcd_x,f,c
  2696  00F662  2A0C               	incf	lcd_put_large@j,f,c
  2697  00F664                     L4:
  2698  00F664  0E06               	movlw	6
  2699  00F666  640C               	cpfsgt	lcd_put_large@j,c
  2700  00F668  D7C4               	goto	l816
  2701                           
  2702                           ;newmain.c: 260: }
  2703                           ;newmain.c: 261: lcd_buf[lcd_x+((lcd_line-1)*128)] = 0;
  2704  00F66A  0E80               	movlw	128
  2705  00F66C  6E07               	movwf	??_lcd_put_large& (0+255),c
  2706  00F66E  0EFF               	movlw	255
  2707  00F670  6E08               	movwf	(??_lcd_put_large+1)& (0+255),c
  2708  00F672  5019               	movf	_lcd_line,w,c
  2709  00F674  6E09               	movwf	(??_lcd_put_large+2)& (0+255),c
  2710  00F676  6A0A               	clrf	(??_lcd_put_large+3)& (0+255),c
  2711  00F678  0E07               	movlw	7
  2712  00F67A                     u145:
  2713  00F67A  90D8               	bcf	status,0,c
  2714  00F67C  3609               	rlcf	??_lcd_put_large+2,f,c
  2715  00F67E  360A               	rlcf	??_lcd_put_large+3,f,c
  2716  00F680  2EE8               	decfsz	wreg,f,c
  2717  00F682  D7FB               	goto	u145
  2718  00F684  501A               	movf	_lcd_x,w,c
  2719  00F686  2609               	addwf	??_lcd_put_large+2,f,c
  2720  00F688  0E00               	movlw	0
  2721  00F68A  220A               	addwfc	??_lcd_put_large+3,f,c
  2722  00F68C  5007               	movf	??_lcd_put_large,w,c
  2723  00F68E  2609               	addwf	??_lcd_put_large+2,f,c
  2724  00F690  5008               	movf	??_lcd_put_large+1,w,c
  2725  00F692  220A               	addwfc	??_lcd_put_large+3,f,c
  2726  00F694  0E80               	movlw	low _lcd_buf
  2727  00F696  2409               	addwf	??_lcd_put_large+2,w,c
  2728  00F698  6ED9               	movwf	fsr2l,c
  2729  00F69A  0E0B               	movlw	high _lcd_buf
  2730  00F69C  200A               	addwfc	??_lcd_put_large+3,w,c
  2731  00F69E  6EDA               	movwf	fsr2h,c
  2732  00F6A0  0E00               	movlw	0
  2733  00F6A2  6EDF               	movwf	indf2,c
  2734                           
  2735                           ;newmain.c: 262: lcd_x -= 7;
  2736  00F6A4  0E07               	movlw	7
  2737  00F6A6  5E1A               	subwf	_lcd_x,f,c
  2738                           
  2739                           ;newmain.c: 265: for (j=7; j<(7*2); j++){
  2740  00F6A8  6E07               	movwf	??_lcd_put_large& (0+255),c
  2741  00F6AA  0E07               	movlw	7
  2742  00F6AC  6E0C               	movwf	lcd_put_large@j,c
  2743  00F6AE  5007               	movf	??_lcd_put_large& (0+255),w,c
  2744  00F6B0  D034               	goto	L5
  2745  00F6B2                     l834:
  2746                           
  2747                           ;newmain.c: 266: lcd_buf[lcd_x+(lcd_line*128)] = lcd_font_big[((c-0x2b)*7*2)+j];
  2748  00F6B2  0ED5               	movlw	213
  2749  00F6B4  240B               	addwf	lcd_put_large@c,w,c
  2750  00F6B6  6E01               	movwf	___wmul@multiplier,c
  2751  00F6B8  6A02               	clrf	___wmul@multiplier+1,c
  2752  00F6BA  0EFF               	movlw	255
  2753  00F6BC  2202               	addwfc	___wmul@multiplier+1,f,c
  2754  00F6BE  0E00               	movlw	0
  2755  00F6C0  6E04               	movwf	___wmul@multiplicand+1,c
  2756  00F6C2  0E0E               	movlw	14
  2757  00F6C4  6E03               	movwf	___wmul@multiplicand,c
  2758  00F6C6  EC86  F079         	call	___wmul	;wreg free
  2759  00F6CA  500C               	movf	lcd_put_large@j,w,c
  2760  00F6CC  2601               	addwf	?___wmul,f,c
  2761  00F6CE  0E00               	movlw	0
  2762  00F6D0  2202               	addwfc	?___wmul+1,f,c
  2763  00F6D2  0E7F               	movlw	low _lcd_font_big
  2764  00F6D4  2401               	addwf	?___wmul,w,c
  2765  00F6D6  6EF6               	movwf	tblptrl,c
  2766  00F6D8  0EFB               	movlw	high _lcd_font_big
  2767  00F6DA  2002               	addwfc	?___wmul+1,w,c
  2768  00F6DC  6EF7               	movwf	tblptrh,c
  2769  00F6DE  6AF8               	clrf	tblptru,c
  2770  00F6E0  0E00               	movlw	low (__mediumconst shr (0+16))
  2771  00F6E2  22F8               	addwfc	tblptru,f,c
  2772  00F6E4  5019               	movf	_lcd_line,w,c
  2773  00F6E6  6E07               	movwf	??_lcd_put_large& (0+255),c
  2774  00F6E8  6A08               	clrf	(??_lcd_put_large+1)& (0+255),c
  2775  00F6EA  0E07               	movlw	7
  2776  00F6EC                     u165:
  2777  00F6EC  90D8               	bcf	status,0,c
  2778  00F6EE  3607               	rlcf	??_lcd_put_large,f,c
  2779  00F6F0  3608               	rlcf	??_lcd_put_large+1,f,c
  2780  00F6F2  2EE8               	decfsz	wreg,f,c
  2781  00F6F4  D7FB               	goto	u165
  2782  00F6F6  501A               	movf	_lcd_x,w,c
  2783  00F6F8  6E09               	movwf	(??_lcd_put_large+2)& (0+255),c
  2784  00F6FA  6A0A               	clrf	(??_lcd_put_large+3)& (0+255),c
  2785  00F6FC  5007               	movf	??_lcd_put_large,w,c
  2786  00F6FE  2609               	addwf	??_lcd_put_large+2,f,c
  2787  00F700  5008               	movf	??_lcd_put_large+1,w,c
  2788  00F702  220A               	addwfc	??_lcd_put_large+3,f,c
  2789  00F704  0E80               	movlw	low _lcd_buf
  2790  00F706  2409               	addwf	??_lcd_put_large+2,w,c
  2791  00F708  6ED9               	movwf	fsr2l,c
  2792  00F70A  0E0B               	movlw	high _lcd_buf
  2793  00F70C  200A               	addwfc	??_lcd_put_large+3,w,c
  2794  00F70E  6EDA               	movwf	fsr2h,c
  2795  00F710  0008               	tblrd		*
  2796  00F712  CFF5 FFDF          	movff	tablat,indf2
  2797                           
  2798                           ;newmain.c: 267: lcd_x++;
  2799  00F716  2A1A               	incf	_lcd_x,f,c
  2800  00F718  2A0C               	incf	lcd_put_large@j,f,c
  2801  00F71A                     L5:
  2802  00F71A  0E0D               	movlw	13
  2803  00F71C  640C               	cpfsgt	lcd_put_large@j,c
  2804  00F71E  D7C9               	goto	l834
  2805                           
  2806                           ;newmain.c: 268: }
  2807                           ;newmain.c: 269: lcd_buf[lcd_x+(lcd_line*128)] = 0;
  2808  00F720  5019               	movf	_lcd_line,w,c
  2809  00F722  6E07               	movwf	??_lcd_put_large& (0+255),c
  2810  00F724  6A08               	clrf	(??_lcd_put_large+1)& (0+255),c
  2811  00F726  0E07               	movlw	7
  2812  00F728                     u185:
  2813  00F728  90D8               	bcf	status,0,c
  2814  00F72A  3607               	rlcf	??_lcd_put_large,f,c
  2815  00F72C  3608               	rlcf	??_lcd_put_large+1,f,c
  2816  00F72E  2EE8               	decfsz	wreg,f,c
  2817  00F730  D7FB               	goto	u185
  2818  00F732  501A               	movf	_lcd_x,w,c
  2819  00F734  6E09               	movwf	(??_lcd_put_large+2)& (0+255),c
  2820  00F736  6A0A               	clrf	(??_lcd_put_large+3)& (0+255),c
  2821  00F738  5007               	movf	??_lcd_put_large,w,c
  2822  00F73A  2609               	addwf	??_lcd_put_large+2,f,c
  2823  00F73C  5008               	movf	??_lcd_put_large+1,w,c
  2824  00F73E  220A               	addwfc	??_lcd_put_large+3,f,c
  2825  00F740  0E80               	movlw	low _lcd_buf
  2826  00F742  2409               	addwf	??_lcd_put_large+2,w,c
  2827  00F744  6ED9               	movwf	fsr2l,c
  2828  00F746  0E0B               	movlw	high _lcd_buf
  2829  00F748  200A               	addwfc	??_lcd_put_large+3,w,c
  2830  00F74A  6EDA               	movwf	fsr2h,c
  2831  00F74C  0E00               	movlw	0
  2832  00F74E  6EDF               	movwf	indf2,c
  2833                           
  2834                           ;newmain.c: 270: lcd_x++;
  2835  00F750  2A1A               	incf	_lcd_x,f,c
  2836  00F752  0012               	return	
  2837  00F754                     __end_of_lcd_put_large:
  2838                           	opt stack 0
  2839                           tblptru	equ	0xFF8
  2840                           tblptrh	equ	0xFF7
  2841                           tblptrl	equ	0xFF6
  2842                           tablat	equ	0xFF5
  2843                           postinc0	equ	0xFEE
  2844                           wreg	equ	0xFE8
  2845                           postdec1	equ	0xFE5
  2846                           fsr1h	equ	0xFE2
  2847                           fsr1l	equ	0xFE1
  2848                           indf2	equ	0xFDF
  2849                           fsr2h	equ	0xFDA
  2850                           fsr2l	equ	0xFD9
  2851                           status	equ	0xFD8
  2852                           
  2853 ;; *************** function _lcd_puts *****************
  2854 ;; Defined at:
  2855 ;;		line 277 in file "newmain.c"
  2856 ;; Parameters:    Size  Location     Type
  2857 ;;  s               2   14[COMRAM] PTR unsigned char 
  2858 ;;		 -> STR_19(12), STR_18(14), STR_17(10), STR_16(10), 
  2859 ;;		 -> STR_14(8), STR_13(10), STR_11(7), STR_10(8), 
  2860 ;;		 -> STR_9(6), STR_8(8), STR_7(6), STR_6(3), 
  2861 ;;		 -> STR_5(4), STR_4(6), STR_3(16), STR_2(15), 
  2862 ;;		 -> STR_1(13), 
  2863 ;; Auto vars:     Size  Location     Type
  2864 ;;		None
  2865 ;; Return value:  Size  Location     Type
  2866 ;;		None               void
  2867 ;; Registers used:
  2868 ;;		wreg, fsr2l, fsr2h, status,2, status,0, tblptrl, tblptrh, tblptru, prodl, prodh, cstack
  2869 ;; Tracked objects:
  2870 ;;		On entry : 0/0
  2871 ;;		On exit  : 0/0
  2872 ;;		Unchanged: 0/0
  2873 ;; Data sizes:     COMRAM   BANK0   BANK1   BANK2   BANK3   BANK4   BANK5   BANK6   BANK7   BANK8   BANK9  BANK10  BANK1
      +1  BANK12  BANK13  BANK14  BANK15
  2874 ;;      Params:         2       0       0       0       0       0       0       0       0       0       0       0       
      +0       0       0       0       0
  2875 ;;      Locals:         0       0       0       0       0       0       0       0       0       0       0       0       
      +0       0       0       0       0
  2876 ;;      Temps:          0       0       0       0       0       0       0       0       0       0       0       0       
      +0       0       0       0       0
  2877 ;;      Totals:         2       0       0       0       0       0       0       0       0       0       0       0       
      +0       0       0       0       0
  2878 ;;Total ram usage:        2 bytes
  2879 ;; Hardware stack levels used:    1
  2880 ;; Hardware stack levels required when called:    2
  2881 ;; This function calls:
  2882 ;;		_lcd_put
  2883 ;; This function is called by:
  2884 ;;		_main
  2885 ;; This function uses a non-reentrant model
  2886 ;;
  2887                           
  2888                           	psect	text5
  2889  00F2A8                     __ptext5:
  2890                           	opt stack 0
  2891  00F2A8                     _lcd_puts:
  2892                           	opt stack 28
  2893                           
  2894                           ;newmain.c: 278: while (*s) lcd_put(*(s++));
  2895                           
  2896                           ;incstack = 0
  2897  00F2A8  D00C               	goto	l882
  2898  00F2AA                     l878:
  2899  00F2AA  C00F  FFF6         	movff	lcd_puts@s,tblptrl
  2900  00F2AE  C010  FFF7         	movff	lcd_puts@s+1,tblptrh
  2901  00F2B2  0E00               	movlw	low (__mediumconst shr (0+16))
  2902  00F2B4  6EF8               	movwf	tblptru,c
  2903  00F2B6  0008               	tblrd		*
  2904  00F2B8  50F5               	movf	tablat,w,c
  2905  00F2BA  EC76  F07A         	call	_lcd_put
  2906  00F2BE  4A0F               	infsnz	lcd_puts@s,f,c
  2907  00F2C0  2A10               	incf	lcd_puts@s+1,f,c
  2908  00F2C2                     l882:
  2909  00F2C2  C00F  FFF6         	movff	lcd_puts@s,tblptrl
  2910  00F2C6  C010  FFF7         	movff	lcd_puts@s+1,tblptrh
  2911  00F2CA  0E00               	movlw	low (__mediumconst shr (0+16))
  2912  00F2CC  6EF8               	movwf	tblptru,c
  2913  00F2CE  0008               	tblrd		*
  2914  00F2D0  50F5               	movf	tablat,w,c
  2915  00F2D2  0900               	iorlw	0
  2916  00F2D4  B4D8               	btfsc	status,2,c
  2917  00F2D6  0012               	return	
  2918  00F2D8  D7E8               	goto	l878
  2919  00F2DA                     __end_of_lcd_puts:
  2920                           	opt stack 0
  2921                           tblptru	equ	0xFF8
  2922                           tblptrh	equ	0xFF7
  2923                           tblptrl	equ	0xFF6
  2924                           tablat	equ	0xFF5
  2925                           postinc0	equ	0xFEE
  2926                           wreg	equ	0xFE8
  2927                           postdec1	equ	0xFE5
  2928                           fsr1h	equ	0xFE2
  2929                           fsr1l	equ	0xFE1
  2930                           indf2	equ	0xFDF
  2931                           fsr2h	equ	0xFDA
  2932                           fsr2l	equ	0xFD9
  2933                           status	equ	0xFD8
  2934                           
  2935 ;; *************** function _lcd_put *****************
  2936 ;; Defined at:
  2937 ;;		line 231 in file "newmain.c"
  2938 ;; Parameters:    Size  Location     Type
  2939 ;;  c               1    wreg     unsigned char 
  2940 ;; Auto vars:     Size  Location     Type
  2941 ;;  c               1   12[COMRAM] unsigned char 
  2942 ;;  j               1   13[COMRAM] unsigned char 
  2943 ;; Return value:  Size  Location     Type
  2944 ;;		None               void
  2945 ;; Registers used:
  2946 ;;		wreg, fsr2l, fsr2h, status,2, status,0, tblptrl, tblptrh, tblptru, prodl, prodh, cstack
  2947 ;; Tracked objects:
  2948 ;;		On entry : 0/0
  2949 ;;		On exit  : 0/0
  2950 ;;		Unchanged: 0/0
  2951 ;; Data sizes:     COMRAM   BANK0   BANK1   BANK2   BANK3   BANK4   BANK5   BANK6   BANK7   BANK8   BANK9  BANK10  BANK1
      +1  BANK12  BANK13  BANK14  BANK15
  2952 ;;      Params:         0       0       0       0       0       0       0       0       0       0       0       0       
      +0       0       0       0       0
  2953 ;;      Locals:         2       0       0       0       0       0       0       0       0       0       0       0       
      +0       0       0       0       0
  2954 ;;      Temps:          6       0       0       0       0       0       0       0       0       0       0       0       
      +0       0       0       0       0
  2955 ;;      Totals:         8       0       0       0       0       0       0       0       0       0       0       0       
      +0       0       0       0       0
  2956 ;;Total ram usage:        8 bytes
  2957 ;; Hardware stack levels used:    1
  2958 ;; Hardware stack levels required when called:    1
  2959 ;; This function calls:
  2960 ;;		___wmul
  2961 ;; This function is called by:
  2962 ;;		_lcd_puts
  2963 ;;		_main
  2964 ;; This function uses a non-reentrant model
  2965 ;;
  2966                           
  2967                           	psect	text6
  2968  00F4EC                     __ptext6:
  2969                           	opt stack 0
  2970  00F4EC                     _lcd_put:
  2971                           	opt stack 28
  2972                           
  2973                           ;incstack = 0
  2974                           ;lcd_put@c stored from wreg
  2975  00F4EC  CFE8 F00D          	movff	wreg,lcd_put@c
  2976                           
  2977                           ;newmain.c: 232: uint8_t j;
  2978                           ;newmain.c: 233: if (lcd_x > (128-5+1)){
  2979  00F4F0  0E7C               	movlw	124
  2980  00F4F2  641A               	cpfsgt	_lcd_x,c
  2981  00F4F4  D005               	goto	l780
  2982                           
  2983                           ;newmain.c: 234: lcd_x = 0;
  2984  00F4F6  6E07               	movwf	??_lcd_put& (0+255),c
  2985  00F4F8  0E00               	movlw	0
  2986  00F4FA  6E1A               	movwf	_lcd_x,c
  2987  00F4FC  5007               	movf	??_lcd_put& (0+255),w,c
  2988                           
  2989                           ;newmain.c: 235: lcd_line++;
  2990  00F4FE  2A19               	incf	_lcd_line,f,c
  2991  00F500                     l780:
  2992                           
  2993                           ;newmain.c: 236: }
  2994                           ;newmain.c: 237: for (j=0; j<5; j++){
  2995  00F500  6E07               	movwf	??_lcd_put& (0+255),c
  2996  00F502  0E00               	movlw	0
  2997  00F504  6E0E               	movwf	lcd_put@j,c
  2998  00F506  5007               	movf	??_lcd_put& (0+255),w,c
  2999  00F508  D03B               	goto	L6
  3000  00F50A                     l786:
  3001                           
  3002                           ;newmain.c: 238: lcd_buf[lcd_x+(lcd_line*128)] = lcd_font[c-0x20][j];
  3003  00F50A  0EE0               	movlw	224
  3004  00F50C  240D               	addwf	lcd_put@c,w,c
  3005  00F50E  6E01               	movwf	___wmul@multiplier,c
  3006  00F510  6A02               	clrf	___wmul@multiplier+1,c
  3007  00F512  0EFF               	movlw	255
  3008  00F514  2202               	addwfc	___wmul@multiplier+1,f,c
  3009  00F516  0E00               	movlw	0
  3010  00F518  6E04               	movwf	___wmul@multiplicand+1,c
  3011  00F51A  0E05               	movlw	5
  3012  00F51C  6E03               	movwf	___wmul@multiplicand,c
  3013  00F51E  EC86  F079         	call	___wmul	;wreg free
  3014  00F522  0E9F               	movlw	low _lcd_font
  3015  00F524  6E07               	movwf	??_lcd_put& (0+255),c
  3016  00F526  0EF9               	movlw	high _lcd_font
  3017  00F528  6E08               	movwf	(??_lcd_put+1)& (0+255),c
  3018  00F52A  5001               	movf	?___wmul,w,c
  3019  00F52C  2607               	addwf	??_lcd_put,f,c
  3020  00F52E  5002               	movf	?___wmul+1,w,c
  3021  00F530  2208               	addwfc	??_lcd_put+1,f,c
  3022  00F532  500E               	movf	lcd_put@j,w,c
  3023  00F534  0D01               	mullw	1
  3024  00F536  50F3               	movf	prodl,w,c
  3025  00F538  2607               	addwf	??_lcd_put,f,c
  3026  00F53A  50F4               	movf	prodh,w,c
  3027  00F53C  2208               	addwfc	??_lcd_put+1,f,c
  3028  00F53E  C007  FFF6         	movff	??_lcd_put,tblptrl
  3029  00F542  C008  FFF7         	movff	??_lcd_put+1,tblptrh
  3030  00F546  0E00               	movlw	low (__mediumconst shr (0+16))
  3031  00F548  6EF8               	movwf	tblptru,c
  3032  00F54A  5019               	movf	_lcd_line,w,c
  3033  00F54C  6E09               	movwf	(??_lcd_put+2)& (0+255),c
  3034  00F54E  6A0A               	clrf	(??_lcd_put+3)& (0+255),c
  3035  00F550  0E07               	movlw	7
  3036  00F552                     u55:
  3037  00F552  90D8               	bcf	status,0,c
  3038  00F554  3609               	rlcf	??_lcd_put+2,f,c
  3039  00F556  360A               	rlcf	??_lcd_put+3,f,c
  3040  00F558  2EE8               	decfsz	wreg,f,c
  3041  00F55A  D7FB               	goto	u55
  3042  00F55C  501A               	movf	_lcd_x,w,c
  3043  00F55E  6E0B               	movwf	(??_lcd_put+4)& (0+255),c
  3044  00F560  6A0C               	clrf	(??_lcd_put+5)& (0+255),c
  3045  00F562  5009               	movf	??_lcd_put+2,w,c
  3046  00F564  260B               	addwf	??_lcd_put+4,f,c
  3047  00F566  500A               	movf	??_lcd_put+3,w,c
  3048  00F568  220C               	addwfc	??_lcd_put+5,f,c
  3049  00F56A  0E80               	movlw	low _lcd_buf
  3050  00F56C  240B               	addwf	??_lcd_put+4,w,c
  3051  00F56E  6ED9               	movwf	fsr2l,c
  3052  00F570  0E0B               	movlw	high _lcd_buf
  3053  00F572  200C               	addwfc	??_lcd_put+5,w,c
  3054  00F574  6EDA               	movwf	fsr2h,c
  3055  00F576  0008               	tblrd		*
  3056  00F578  CFF5 FFDF          	movff	tablat,indf2
  3057                           
  3058                           ;newmain.c: 239: lcd_x++;
  3059  00F57C  2A1A               	incf	_lcd_x,f,c
  3060  00F57E  2A0E               	incf	lcd_put@j,f,c
  3061  00F580                     L6:
  3062  00F580  0E04               	movlw	4
  3063  00F582  640E               	cpfsgt	lcd_put@j,c
  3064  00F584  D7C2               	goto	l786
  3065                           
  3066                           ;newmain.c: 240: }
  3067                           ;newmain.c: 241: lcd_buf[lcd_x+(lcd_line*128)] = 0;
  3068  00F586  5019               	movf	_lcd_line,w,c
  3069  00F588  6E07               	movwf	??_lcd_put& (0+255),c
  3070  00F58A  6A08               	clrf	(??_lcd_put+1)& (0+255),c
  3071  00F58C  0E07               	movlw	7
  3072  00F58E                     u75:
  3073  00F58E  90D8               	bcf	status,0,c
  3074  00F590  3607               	rlcf	??_lcd_put,f,c
  3075  00F592  3608               	rlcf	??_lcd_put+1,f,c
  3076  00F594  2EE8               	decfsz	wreg,f,c
  3077  00F596  D7FB               	goto	u75
  3078  00F598  501A               	movf	_lcd_x,w,c
  3079  00F59A  6E09               	movwf	(??_lcd_put+2)& (0+255),c
  3080  00F59C  6A0A               	clrf	(??_lcd_put+3)& (0+255),c
  3081  00F59E  5007               	movf	??_lcd_put,w,c
  3082  00F5A0  2609               	addwf	??_lcd_put+2,f,c
  3083  00F5A2  5008               	movf	??_lcd_put+1,w,c
  3084  00F5A4  220A               	addwfc	??_lcd_put+3,f,c
  3085  00F5A6  0E80               	movlw	low _lcd_buf
  3086  00F5A8  2409               	addwf	??_lcd_put+2,w,c
  3087  00F5AA  6ED9               	movwf	fsr2l,c
  3088  00F5AC  0E0B               	movlw	high _lcd_buf
  3089  00F5AE  200A               	addwfc	??_lcd_put+3,w,c
  3090  00F5B0  6EDA               	movwf	fsr2h,c
  3091  00F5B2  0E00               	movlw	0
  3092  00F5B4  6EDF               	movwf	indf2,c
  3093                           
  3094                           ;newmain.c: 242: lcd_x++;
  3095  00F5B6  2A1A               	incf	_lcd_x,f,c
  3096  00F5B8  0012               	return	
  3097  00F5BA                     __end_of_lcd_put:
  3098                           	opt stack 0
  3099                           tblptru	equ	0xFF8
  3100                           tblptrh	equ	0xFF7
  3101                           tblptrl	equ	0xFF6
  3102                           tablat	equ	0xFF5
  3103                           prodh	equ	0xFF4
  3104                           prodl	equ	0xFF3
  3105                           postinc0	equ	0xFEE
  3106                           wreg	equ	0xFE8
  3107                           postdec1	equ	0xFE5
  3108                           fsr1h	equ	0xFE2
  3109                           fsr1l	equ	0xFE1
  3110                           indf2	equ	0xFDF
  3111                           fsr2h	equ	0xFDA
  3112                           fsr2l	equ	0xFD9
  3113                           status	equ	0xFD8
  3114                           
  3115 ;; *************** function ___wmul *****************
  3116 ;; Defined at:
  3117 ;;		line 3 in file "C:\Program Files (x86)\Microchip\xc8\v1.31\sources\common\wmul.c"
  3118 ;; Parameters:    Size  Location     Type
  3119 ;;  multiplier      2    0[COMRAM] unsigned int 
  3120 ;;  multiplicand    2    2[COMRAM] unsigned int 
  3121 ;; Auto vars:     Size  Location     Type
  3122 ;;  product         2    4[COMRAM] unsigned int 
  3123 ;; Return value:  Size  Location     Type
  3124 ;;                  2    0[COMRAM] unsigned int 
  3125 ;; Registers used:
  3126 ;;		wreg, status,2, status,0, prodl, prodh
  3127 ;; Tracked objects:
  3128 ;;		On entry : 0/0
  3129 ;;		On exit  : 0/0
  3130 ;;		Unchanged: 0/0
  3131 ;; Data sizes:     COMRAM   BANK0   BANK1   BANK2   BANK3   BANK4   BANK5   BANK6   BANK7   BANK8   BANK9  BANK10  BANK1
      +1  BANK12  BANK13  BANK14  BANK15
  3132 ;;      Params:         4       0       0       0       0       0       0       0       0       0       0       0       
      +0       0       0       0       0
  3133 ;;      Locals:         2       0       0       0       0       0       0       0       0       0       0       0       
      +0       0       0       0       0
  3134 ;;      Temps:          0       0       0       0       0       0       0       0       0       0       0       0       
      +0       0       0       0       0
  3135 ;;      Totals:         6       0       0       0       0       0       0       0       0       0       0       0       
      +0       0       0       0       0
  3136 ;;Total ram usage:        6 bytes
  3137 ;; Hardware stack levels used:    1
  3138 ;; This function calls:
  3139 ;;		Nothing
  3140 ;; This function is called by:
  3141 ;;		_lcd_put
  3142 ;;		_lcd_put_large
  3143 ;; This function uses a non-reentrant model
  3144 ;;
  3145                           
  3146                           	psect	text7
  3147  00F30C                     __ptext7:
  3148                           	opt stack 0
  3149  00F30C                     ___wmul:
  3150                           	opt stack 28
  3151                           
  3152                           ;incstack = 0
  3153  00F30C  5001               	movf	___wmul@multiplier,w,c
  3154  00F30E  0203               	mulwf	___wmul@multiplicand,c
  3155  00F310  CFF3 F005          	movff	prodl,___wmul@product
  3156  00F314  CFF4 F006          	movff	prodh,___wmul@product+1
  3157  00F318  5001               	movf	___wmul@multiplier,w,c
  3158  00F31A  0204               	mulwf	___wmul@multiplicand+1,c
  3159  00F31C  CFF3 FFF4          	movff	prodl,prodh
  3160  00F320  6AF3               	clrf	prodl,c
  3161  00F322  50F3               	movf	prodl,w,c
  3162  00F324  2605               	addwf	___wmul@product,f,c
  3163  00F326  50F4               	movf	prodh,w,c
  3164  00F328  2206               	addwfc	___wmul@product+1,f,c
  3165  00F32A  5002               	movf	___wmul@multiplier+1,w,c
  3166  00F32C  0203               	mulwf	___wmul@multiplicand,c
  3167  00F32E  CFF3 FFF4          	movff	prodl,prodh
  3168  00F332  6AF3               	clrf	prodl,c
  3169  00F334  50F3               	movf	prodl,w,c
  3170  00F336  2605               	addwf	___wmul@product,f,c
  3171  00F338  50F4               	movf	prodh,w,c
  3172  00F33A  2206               	addwfc	___wmul@product+1,f,c
  3173  00F33C  C005  F001         	movff	___wmul@product,?___wmul
  3174  00F340  C006  F002         	movff	___wmul@product+1,?___wmul+1
  3175  00F344  0012               	return	
  3176  00F346                     __end_of___wmul:
  3177                           	opt stack 0
  3178                           tblptru	equ	0xFF8
  3179                           tblptrh	equ	0xFF7
  3180                           tblptrl	equ	0xFF6
  3181                           tablat	equ	0xFF5
  3182                           prodh	equ	0xFF4
  3183                           prodl	equ	0xFF3
  3184                           postinc0	equ	0xFEE
  3185                           wreg	equ	0xFE8
  3186                           postdec1	equ	0xFE5
  3187                           fsr1h	equ	0xFE2
  3188                           fsr1l	equ	0xFE1
  3189                           indf2	equ	0xFDF
  3190                           fsr2h	equ	0xFDA
  3191                           fsr2l	equ	0xFD9
  3192                           status	equ	0xFD8
  3193                           
  3194 ;; *************** function _lcd_init *****************
  3195 ;; Defined at:
  3196 ;;		line 291 in file "newmain.c"
  3197 ;; Parameters:    Size  Location     Type
  3198 ;;		None
  3199 ;; Auto vars:     Size  Location     Type
  3200 ;;		None
  3201 ;; Return value:  Size  Location     Type
  3202 ;;		None               void
  3203 ;; Registers used:
  3204 ;;		wreg, status,2, status,0, cstack
  3205 ;; Tracked objects:
  3206 ;;		On entry : 0/0
  3207 ;;		On exit  : 0/0
  3208 ;;		Unchanged: 0/0
  3209 ;; Data sizes:     COMRAM   BANK0   BANK1   BANK2   BANK3   BANK4   BANK5   BANK6   BANK7   BANK8   BANK9  BANK10  BANK1
      +1  BANK12  BANK13  BANK14  BANK15
  3210 ;;      Params:         0       0       0       0       0       0       0       0       0       0       0       0       
      +0       0       0       0       0
  3211 ;;      Locals:         0       0       0       0       0       0       0       0       0       0       0       0       
      +0       0       0       0       0
  3212 ;;      Temps:          0       0       0       0       0       0       0       0       0       0       0       0       
      +0       0       0       0       0
  3213 ;;      Totals:         0       0       0       0       0       0       0       0       0       0       0       0       
      +0       0       0       0       0
  3214 ;;Total ram usage:        0 bytes
  3215 ;; Hardware stack levels used:    1
  3216 ;; Hardware stack levels required when called:    1
  3217 ;; This function calls:
  3218 ;;		_delay_ms
  3219 ;;		_spi
  3220 ;; This function is called by:
  3221 ;;		_main
  3222 ;; This function uses a non-reentrant model
  3223 ;;
  3224                           
  3225                           	psect	text8
  3226  00F3C0                     __ptext8:
  3227                           	opt stack 0
  3228  00F3C0                     _lcd_init:
  3229                           	opt stack 29
  3230                           
  3231                           ;newmain.c: 292: LATBbits.LATB0 = 0;
  3232                           
  3233                           ;incstack = 0
  3234  00F3C0  908A               	bcf	3978,0,c	;volatile
  3235                           
  3236                           ;newmain.c: 293: LATBbits.LATB1 = 0;
  3237  00F3C2  928A               	bcf	3978,1,c	;volatile
  3238                           
  3239                           ;newmain.c: 294: delay_ms(1);
  3240  00F3C4  0E00               	movlw	0
  3241  00F3C6  6E02               	movwf	delay_ms@n+1,c
  3242  00F3C8  0E01               	movlw	1
  3243  00F3CA  6E01               	movwf	delay_ms@n,c
  3244  00F3CC  EC29  F079         	call	_delay_ms	;wreg free
  3245                           
  3246                           ;newmain.c: 295: LATBbits.LATB1 = 1;
  3247  00F3D0  828A               	bsf	3978,1,c	;volatile
  3248                           
  3249                           ;newmain.c: 296: delay_ms(1);
  3250  00F3D2  0E00               	movlw	0
  3251  00F3D4  6E02               	movwf	delay_ms@n+1,c
  3252  00F3D6  0E01               	movlw	1
  3253  00F3D8  6E01               	movwf	delay_ms@n,c
  3254  00F3DA  EC29  F079         	call	_delay_ms	;wreg free
  3255                           
  3256                           ;newmain.c: 297: LATBbits.LATB2 = 0;
  3257  00F3DE  948A               	bcf	3978,2,c	;volatile
  3258                           
  3259                           ;newmain.c: 298: LATBbits.LATB0 = 0;
  3260  00F3E0  908A               	bcf	3978,0,c	;volatile
  3261                           
  3262                           ;newmain.c: 299: spi(0xA3);
  3263  00F3E2  0EA3               	movlw	163
  3264  00F3E4  ECF3  F078         	call	_spi
  3265                           
  3266                           ;newmain.c: 300: spi(0xA1);
  3267  00F3E8  0EA1               	movlw	161
  3268  00F3EA  ECF3  F078         	call	_spi
  3269                           
  3270                           ;newmain.c: 301: spi(0xC8);
  3271  00F3EE  0EC8               	movlw	200
  3272  00F3F0  ECF3  F078         	call	_spi
  3273                           
  3274                           ;newmain.c: 302: spi(0xA4);
  3275  00F3F4  0EA4               	movlw	164
  3276  00F3F6  ECF3  F078         	call	_spi
  3277                           
  3278                           ;newmain.c: 303: spi(0x40);
  3279  00F3FA  0E40               	movlw	64
  3280  00F3FC  ECF3  F078         	call	_spi
  3281                           
  3282                           ;newmain.c: 304: spi(0x28 | 0x4);
  3283  00F400  0E2C               	movlw	44
  3284  00F402  ECF3  F078         	call	_spi
  3285                           
  3286                           ;newmain.c: 305: delay_ms(50);
  3287  00F406  0E00               	movlw	0
  3288  00F408  6E02               	movwf	delay_ms@n+1,c
  3289  00F40A  0E32               	movlw	50
  3290  00F40C  6E01               	movwf	delay_ms@n,c
  3291  00F40E  EC29  F079         	call	_delay_ms	;wreg free
  3292                           
  3293                           ;newmain.c: 306: spi(0x28 | 0x6);
  3294  00F412  0E2E               	movlw	46
  3295  00F414  ECF3  F078         	call	_spi
  3296                           
  3297                           ;newmain.c: 307: delay_ms(50);
  3298  00F418  0E00               	movlw	0
  3299  00F41A  6E02               	movwf	delay_ms@n+1,c
  3300  00F41C  0E32               	movlw	50
  3301  00F41E  6E01               	movwf	delay_ms@n,c
  3302  00F420  EC29  F079         	call	_delay_ms	;wreg free
  3303                           
  3304                           ;newmain.c: 308: spi(0x28 | 0x7);
  3305  00F424  0E2F               	movlw	47
  3306  00F426  ECF3  F078         	call	_spi
  3307                           
  3308                           ;newmain.c: 309: delay_ms(50);
  3309  00F42A  0E00               	movlw	0
  3310  00F42C  6E02               	movwf	delay_ms@n+1,c
  3311  00F42E  0E32               	movlw	50
  3312  00F430  6E01               	movwf	delay_ms@n,c
  3313  00F432  EC29  F079         	call	_delay_ms	;wreg free
  3314                           
  3315                           ;newmain.c: 310: spi(0x20 | 3);
  3316  00F436  0E23               	movlw	35
  3317  00F438  ECF3  F078         	call	_spi
  3318                           
  3319                           ;newmain.c: 311: spi(0x81);
  3320  00F43C  0E81               	movlw	129
  3321  00F43E  ECF3  F078         	call	_spi
  3322                           
  3323                           ;newmain.c: 312: spi(0x00 | (33 & 0x3f));
  3324  00F442  0E21               	movlw	33
  3325  00F444  ECF3  F078         	call	_spi
  3326                           
  3327                           ;newmain.c: 313: spi(0xAF);
  3328  00F448  0EAF               	movlw	175
  3329  00F44A  ECF3  F078         	call	_spi
  3330                           
  3331                           ;newmain.c: 314: LATBbits.LATB0 = 1;
  3332  00F44E  808A               	bsf	3978,0,c	;volatile
  3333  00F450  0012               	return	
  3334  00F452                     __end_of_lcd_init:
  3335                           	opt stack 0
  3336                           tblptru	equ	0xFF8
  3337                           tblptrh	equ	0xFF7
  3338                           tblptrl	equ	0xFF6
  3339                           tablat	equ	0xFF5
  3340                           prodh	equ	0xFF4
  3341                           prodl	equ	0xFF3
  3342                           postinc0	equ	0xFEE
  3343                           wreg	equ	0xFE8
  3344                           postdec1	equ	0xFE5
  3345                           fsr1h	equ	0xFE2
  3346                           fsr1l	equ	0xFE1
  3347                           indf2	equ	0xFDF
  3348                           fsr2h	equ	0xFDA
  3349                           fsr2l	equ	0xFD9
  3350                           status	equ	0xFD8
  3351                           
  3352 ;; *************** function _spi *****************
  3353 ;; Defined at:
  3354 ;;		line 224 in file "newmain.c"
  3355 ;; Parameters:    Size  Location     Type
  3356 ;;  data            1    wreg     unsigned char 
  3357 ;; Auto vars:     Size  Location     Type
  3358 ;;  data            1    0[COMRAM] unsigned char 
  3359 ;; Return value:  Size  Location     Type
  3360 ;;		None               void
  3361 ;; Registers used:
  3362 ;;		wreg
  3363 ;; Tracked objects:
  3364 ;;		On entry : 0/0
  3365 ;;		On exit  : 0/0
  3366 ;;		Unchanged: 0/0
  3367 ;; Data sizes:     COMRAM   BANK0   BANK1   BANK2   BANK3   BANK4   BANK5   BANK6   BANK7   BANK8   BANK9  BANK10  BANK1
      +1  BANK12  BANK13  BANK14  BANK15
  3368 ;;      Params:         0       0       0       0       0       0       0       0       0       0       0       0       
      +0       0       0       0       0
  3369 ;;      Locals:         1       0       0       0       0       0       0       0       0       0       0       0       
      +0       0       0       0       0
  3370 ;;      Temps:          0       0       0       0       0       0       0       0       0       0       0       0       
      +0       0       0       0       0
  3371 ;;      Totals:         1       0       0       0       0       0       0       0       0       0       0       0       
      +0       0       0       0       0
  3372 ;;Total ram usage:        1 bytes
  3373 ;; Hardware stack levels used:    1
  3374 ;; This function calls:
  3375 ;;		Nothing
  3376 ;; This function is called by:
  3377 ;;		_lcd_init
  3378 ;;		_lcd_refresh
  3379 ;; This function uses a non-reentrant model
  3380 ;;
  3381                           
  3382                           	psect	text9
  3383  00F1E6                     __ptext9:
  3384                           	opt stack 0
  3385  00F1E6                     _spi:
  3386                           	opt stack 29
  3387                           
  3388                           ;incstack = 0
  3389                           ;spi@data stored from wreg
  3390  00F1E6  CFE8 F001          	movff	wreg,spi@data
  3391                           
  3392                           ;newmain.c: 225: (void)SSPBUF;
  3393  00F1EA  50C9               	movf	4041,w,c	;volatile
  3394                           
  3395                           ;newmain.c: 226: SSPBUF = data;
  3396  00F1EC  C001  FFC9         	movff	spi@data,4041	;volatile
  3397  00F1F0                     l43:
  3398  00F1F0  A69E               	btfss	3998,3,c	;volatile
  3399  00F1F2  D7FE               	goto	l43
  3400                           
  3401                           ;newmain.c: 228: PIR1bits.SSPIF = 0;
  3402  00F1F4  969E               	bcf	3998,3,c	;volatile
  3403  00F1F6  0012               	return	
  3404  00F1F8                     __end_of_spi:
  3405                           	opt stack 0
  3406                           tblptru	equ	0xFF8
  3407                           tblptrh	equ	0xFF7
  3408                           tblptrl	equ	0xFF6
  3409                           tablat	equ	0xFF5
  3410                           prodh	equ	0xFF4
  3411                           prodl	equ	0xFF3
  3412                           postinc0	equ	0xFEE
  3413                           wreg	equ	0xFE8
  3414                           postdec1	equ	0xFE5
  3415                           fsr1h	equ	0xFE2
  3416                           fsr1l	equ	0xFE1
  3417                           indf2	equ	0xFDF
  3418                           fsr2h	equ	0xFDA
  3419                           fsr2l	equ	0xFD9
  3420                           status	equ	0xFD8
  3421                           
  3422 ;; *************** function _delay_ms *****************
  3423 ;; Defined at:
  3424 ;;		line 286 in file "newmain.c"
  3425 ;; Parameters:    Size  Location     Type
  3426 ;;  n               2    0[COMRAM] unsigned int 
  3427 ;; Auto vars:     Size  Location     Type
  3428 ;;  j               2    3[COMRAM] unsigned int 
  3429 ;; Return value:  Size  Location     Type
  3430 ;;		None               void
  3431 ;; Registers used:
  3432 ;;		wreg, status,2, status,0
  3433 ;; Tracked objects:
  3434 ;;		On entry : 0/0
  3435 ;;		On exit  : 0/0
  3436 ;;		Unchanged: 0/0
  3437 ;; Data sizes:     COMRAM   BANK0   BANK1   BANK2   BANK3   BANK4   BANK5   BANK6   BANK7   BANK8   BANK9  BANK10  BANK1
      +1  BANK12  BANK13  BANK14  BANK15
  3438 ;;      Params:         2       0       0       0       0       0       0       0       0       0       0       0       
      +0       0       0       0       0
  3439 ;;      Locals:         2       0       0       0       0       0       0       0       0       0       0       0       
      +0       0       0       0       0
  3440 ;;      Temps:          1       0       0       0       0       0       0       0       0       0       0       0       
      +0       0       0       0       0
  3441 ;;      Totals:         5       0       0       0       0       0       0       0       0       0       0       0       
      +0       0       0       0       0
  3442 ;;Total ram usage:        5 bytes
  3443 ;; Hardware stack levels used:    1
  3444 ;; This function calls:
  3445 ;;		Nothing
  3446 ;; This function is called by:
  3447 ;;		_lcd_init
  3448 ;;		_main
  3449 ;; This function uses a non-reentrant model
  3450 ;;
  3451                           
  3452                           	psect	text10
  3453  00F252                     __ptext10:
  3454                           	opt stack 0
  3455  00F252                     _delay_ms:
  3456                           	opt stack 29
  3457                           
  3458                           ;newmain.c: 287: uint16_t j;
  3459                           ;newmain.c: 288: for (j=0;j<n;j++) _delay((unsigned long)((1)*(8000000/4000.0)));
  3460                           
  3461                           ;incstack = 0
  3462  00F252  0E00               	movlw	0
  3463  00F254  6E05               	movwf	delay_ms@j+1,c
  3464  00F256  0E00               	movlw	0
  3465  00F258  6E04               	movwf	delay_ms@j,c
  3466  00F25A  D009               	goto	l81
  3467  00F25C                     l848:
  3468  00F25C  0E03               	movlw	3
  3469  00F25E  6E03               	movwf	??_delay_ms& (0+255),c
  3470  00F260  0E98               	movlw	152
  3471  00F262                     u307:
  3472  00F262  2EE8               	decfsz	wreg,f,c
  3473  00F264  D7FE               	goto	u307
  3474  00F266  2E03               	decfsz	??_delay_ms& (0+255),f,c
  3475  00F268  D7FC               	goto	u307
  3476  00F26A  4A04               	infsnz	delay_ms@j,f,c
  3477  00F26C  2A05               	incf	delay_ms@j+1,f,c
  3478  00F26E                     l81:
  3479  00F26E  5001               	movf	delay_ms@n,w,c
  3480  00F270  5C04               	subwf	delay_ms@j,w,c
  3481  00F272  5002               	movf	delay_ms@n+1,w,c
  3482  00F274  5805               	subwfb	delay_ms@j+1,w,c
  3483  00F276  B0D8               	btfsc	status,0,c
  3484  00F278  0012               	return	
  3485  00F27A  D7F0               	goto	l848
  3486  00F27C                     __end_of_delay_ms:
  3487                           	opt stack 0
  3488                           tblptru	equ	0xFF8
  3489                           tblptrh	equ	0xFF7
  3490                           tblptrl	equ	0xFF6
  3491                           tablat	equ	0xFF5
  3492                           prodh	equ	0xFF4
  3493                           prodl	equ	0xFF3
  3494                           postinc0	equ	0xFEE
  3495                           wreg	equ	0xFE8
  3496                           postdec1	equ	0xFE5
  3497                           fsr1h	equ	0xFE2
  3498                           fsr1l	equ	0xFE1
  3499                           indf2	equ	0xFDF
  3500                           fsr2h	equ	0xFDA
  3501                           fsr2l	equ	0xFD9
  3502                           status	equ	0xFD8
  3503                           
  3504 ;; *************** function _lcd_cursor *****************
  3505 ;; Defined at:
  3506 ;;		line 281 in file "newmain.c"
  3507 ;; Parameters:    Size  Location     Type
  3508 ;;  x               1    wreg     unsigned char 
  3509 ;;  line            1    0[COMRAM] unsigned char 
  3510 ;; Auto vars:     Size  Location     Type
  3511 ;;  x               1    1[COMRAM] unsigned char 
  3512 ;; Return value:  Size  Location     Type
  3513 ;;		None               void
  3514 ;; Registers used:
  3515 ;;		wreg
  3516 ;; Tracked objects:
  3517 ;;		On entry : 0/0
  3518 ;;		On exit  : 0/0
  3519 ;;		Unchanged: 0/0
  3520 ;; Data sizes:     COMRAM   BANK0   BANK1   BANK2   BANK3   BANK4   BANK5   BANK6   BANK7   BANK8   BANK9  BANK10  BANK1
      +1  BANK12  BANK13  BANK14  BANK15
  3521 ;;      Params:         1       0       0       0       0       0       0       0       0       0       0       0       
      +0       0       0       0       0
  3522 ;;      Locals:         1       0       0       0       0       0       0       0       0       0       0       0       
      +0       0       0       0       0
  3523 ;;      Temps:          0       0       0       0       0       0       0       0       0       0       0       0       
      +0       0       0       0       0
  3524 ;;      Totals:         2       0       0       0       0       0       0       0       0       0       0       0       
      +0       0       0       0       0
  3525 ;;Total ram usage:        2 bytes
  3526 ;; Hardware stack levels used:    1
  3527 ;; This function calls:
  3528 ;;		Nothing
  3529 ;; This function is called by:
  3530 ;;		_main
  3531 ;; This function uses a non-reentrant model
  3532 ;;
  3533                           
  3534                           	psect	text11
  3535  00F1D8                     __ptext11:
  3536                           	opt stack 0
  3537  00F1D8                     _lcd_cursor:
  3538                           	opt stack 30
  3539                           
  3540                           ;incstack = 0
  3541                           ;lcd_cursor@x stored from wreg
  3542  00F1D8  CFE8 F002          	movff	wreg,lcd_cursor@x
  3543                           
  3544                           ;newmain.c: 282: lcd_x = x;
  3545  00F1DC  C002  F01A         	movff	lcd_cursor@x,_lcd_x
  3546                           
  3547                           ;newmain.c: 283: lcd_line = line;
  3548  00F1E0  C001  F019         	movff	lcd_cursor@line,_lcd_line
  3549  00F1E4  0012               	return	
  3550  00F1E6                     __end_of_lcd_cursor:
  3551                           	opt stack 0
  3552                           tblptru	equ	0xFF8
  3553                           tblptrh	equ	0xFF7
  3554                           tblptrl	equ	0xFF6
  3555                           tablat	equ	0xFF5
  3556                           prodh	equ	0xFF4
  3557                           prodl	equ	0xFF3
  3558                           postinc0	equ	0xFEE
  3559                           wreg	equ	0xFE8
  3560                           postdec1	equ	0xFE5
  3561                           fsr1h	equ	0xFE2
  3562                           fsr1l	equ	0xFE1
  3563                           indf2	equ	0xFDF
  3564                           fsr2h	equ	0xFDA
  3565                           fsr2l	equ	0xFD9
  3566                           status	equ	0xFD8
  3567                           
  3568 ;; *************** function _lcd_clear *****************
  3569 ;; Defined at:
  3570 ;;		line 220 in file "newmain.c"
  3571 ;; Parameters:    Size  Location     Type
  3572 ;;		None
  3573 ;; Auto vars:     Size  Location     Type
  3574 ;;		None
  3575 ;; Return value:  Size  Location     Type
  3576 ;;		None               void
  3577 ;; Registers used:
  3578 ;;		wreg, fsr2l, fsr2h, status,2, status,0, cstack
  3579 ;; Tracked objects:
  3580 ;;		On entry : 0/0
  3581 ;;		On exit  : 0/0
  3582 ;;		Unchanged: 0/0
  3583 ;; Data sizes:     COMRAM   BANK0   BANK1   BANK2   BANK3   BANK4   BANK5   BANK6   BANK7   BANK8   BANK9  BANK10  BANK1
      +1  BANK12  BANK13  BANK14  BANK15
  3584 ;;      Params:         0       0       0       0       0       0       0       0       0       0       0       0       
      +0       0       0       0       0
  3585 ;;      Locals:         0       0       0       0       0       0       0       0       0       0       0       0       
      +0       0       0       0       0
  3586 ;;      Temps:          0       0       0       0       0       0       0       0       0       0       0       0       
      +0       0       0       0       0
  3587 ;;      Totals:         0       0       0       0       0       0       0       0       0       0       0       0       
      +0       0       0       0       0
  3588 ;;Total ram usage:        0 bytes
  3589 ;; Hardware stack levels used:    1
  3590 ;; Hardware stack levels required when called:    1
  3591 ;; This function calls:
  3592 ;;		_memset
  3593 ;; This function is called by:
  3594 ;;		_main
  3595 ;; This function uses a non-reentrant model
  3596 ;;
  3597                           
  3598                           	psect	text12
  3599  00F1F8                     __ptext12:
  3600                           	opt stack 0
  3601  00F1F8                     _lcd_clear:
  3602                           	opt stack 29
  3603                           
  3604                           ;newmain.c: 221: memset (lcd_buf, 0, (128*8));
  3605                           
  3606                           ;incstack = 0
  3607  00F1F8  0E0B               	movlw	high _lcd_buf
  3608  00F1FA  6E02               	movwf	memset@p1+1,c
  3609  00F1FC  0E80               	movlw	low _lcd_buf
  3610  00F1FE  6E01               	movwf	memset@p1,c
  3611  00F200  0E00               	movlw	0
  3612  00F202  6E04               	movwf	memset@c+1,c
  3613  00F204  0E00               	movlw	0
  3614  00F206  6E03               	movwf	memset@c,c
  3615  00F208  0E04               	movlw	4
  3616  00F20A  6E06               	movwf	memset@n+1,c
  3617  00F20C  0E00               	movlw	0
  3618  00F20E  6E05               	movwf	memset@n,c
  3619  00F210  EC3E  F079         	call	_memset	;wreg free
  3620  00F214  0012               	return	
  3621  00F216                     __end_of_lcd_clear:
  3622                           	opt stack 0
  3623                           tblptru	equ	0xFF8
  3624                           tblptrh	equ	0xFF7
  3625                           tblptrl	equ	0xFF6
  3626                           tablat	equ	0xFF5
  3627                           prodh	equ	0xFF4
  3628                           prodl	equ	0xFF3
  3629                           postinc0	equ	0xFEE
  3630                           wreg	equ	0xFE8
  3631                           postdec1	equ	0xFE5
  3632                           fsr1h	equ	0xFE2
  3633                           fsr1l	equ	0xFE1
  3634                           indf2	equ	0xFDF
  3635                           fsr2h	equ	0xFDA
  3636                           fsr2l	equ	0xFD9
  3637                           status	equ	0xFD8
  3638                           
  3639 ;; *************** function _memset *****************
  3640 ;; Defined at:
  3641 ;;		line 8 in file "C:\Program Files (x86)\Microchip\xc8\v1.31\sources\common\memset.c"
  3642 ;; Parameters:    Size  Location     Type
  3643 ;;  p1              2    0[COMRAM] PTR void 
  3644 ;;		 -> lcd_buf(1024), 
  3645 ;;  c               2    2[COMRAM] int 
  3646 ;;  n               2    4[COMRAM] unsigned int 
  3647 ;; Auto vars:     Size  Location     Type
  3648 ;;  p               2    6[COMRAM] PTR unsigned char 
  3649 ;;		 -> lcd_buf(1024), 
  3650 ;; Return value:  Size  Location     Type
  3651 ;;                  2    0[COMRAM] PTR void 
  3652 ;; Registers used:
  3653 ;;		wreg, fsr2l, fsr2h, status,2, status,0
  3654 ;; Tracked objects:
  3655 ;;		On entry : 0/0
  3656 ;;		On exit  : 0/0
  3657 ;;		Unchanged: 0/0
  3658 ;; Data sizes:     COMRAM   BANK0   BANK1   BANK2   BANK3   BANK4   BANK5   BANK6   BANK7   BANK8   BANK9  BANK10  BANK1
      +1  BANK12  BANK13  BANK14  BANK15
  3659 ;;      Params:         6       0       0       0       0       0       0       0       0       0       0       0       
      +0       0       0       0       0
  3660 ;;      Locals:         2       0       0       0       0       0       0       0       0       0       0       0       
      +0       0       0       0       0
  3661 ;;      Temps:          0       0       0       0       0       0       0       0       0       0       0       0       
      +0       0       0       0       0
  3662 ;;      Totals:         8       0       0       0       0       0       0       0       0       0       0       0       
      +0       0       0       0       0
  3663 ;;Total ram usage:        8 bytes
  3664 ;; Hardware stack levels used:    1
  3665 ;; This function calls:
  3666 ;;		Nothing
  3667 ;; This function is called by:
  3668 ;;		_lcd_clear
  3669 ;; This function uses a non-reentrant model
  3670 ;;
  3671                           
  3672                           	psect	text13
  3673  00F27C                     __ptext13:
  3674                           	opt stack 0
  3675  00F27C                     _memset:
  3676                           	opt stack 29
  3677                           
  3678                           ;incstack = 0
  3679  00F27C  C002  F008         	movff	memset@p1+1,memset@p+1
  3680  00F280  C001  F007         	movff	memset@p1,memset@p
  3681  00F284  D008               	goto	l768
  3682  00F286                     l764:
  3683  00F286  C007  FFD9         	movff	memset@p,fsr2l
  3684  00F28A  C008  FFDA         	movff	memset@p+1,fsr2h
  3685  00F28E  C003  FFDF         	movff	memset@c,indf2
  3686  00F292  4A07               	infsnz	memset@p,f,c
  3687  00F294  2A08               	incf	memset@p+1,f,c
  3688  00F296                     l768:
  3689  00F296  0605               	decf	memset@n,f,c
  3690  00F298  A0D8               	btfss	status,0,c
  3691  00F29A  0606               	decf	memset@n+1,f,c
  3692  00F29C  2805               	incf	memset@n& (0+255),w,c
  3693  00F29E  B4D8               	btfsc	status,2,c
  3694  00F2A0  2806               	incf	(memset@n+1)& (0+255),w,c
  3695  00F2A2  B4D8               	btfsc	status,2,c
  3696                           
  3697                           ;	Return value of _memset is never used
  3698  00F2A4  0012               	return	
  3699  00F2A6  D7EF               	goto	l764
  3700  00F2A8                     __end_of_memset:
  3701                           	opt stack 0
  3702                           tblptru	equ	0xFF8
  3703                           tblptrh	equ	0xFF7
  3704                           tblptrl	equ	0xFF6
  3705                           tablat	equ	0xFF5
  3706                           prodh	equ	0xFF4
  3707                           prodl	equ	0xFF3
  3708                           postinc0	equ	0xFEE
  3709                           wreg	equ	0xFE8
  3710                           postdec1	equ	0xFE5
  3711                           fsr1h	equ	0xFE2
  3712                           fsr1l	equ	0xFE1
  3713                           indf2	equ	0xFDF
  3714                           fsr2h	equ	0xFDA
  3715                           fsr2l	equ	0xFD9
  3716                           status	equ	0xFD8
  3717                           
  3718 ;; *************** function _lcd_bitmap *****************
  3719 ;; Defined at:
  3720 ;;		line 210 in file "newmain.c"
  3721 ;; Parameters:    Size  Location     Type
  3722 ;;  gfx             2    0[COMRAM] PTR unsigned char 
  3723 ;;		 -> se_logo(762), 
  3724 ;;  x_size          1    2[COMRAM] unsigned char 
  3725 ;;  line_size       1    3[COMRAM] unsigned char 
  3726 ;; Auto vars:     Size  Location     Type
  3727 ;;  line            1   13[COMRAM] unsigned char 
  3728 ;;  x               1   12[COMRAM] unsigned char 
  3729 ;; Return value:  Size  Location     Type
  3730 ;;		None               void
  3731 ;; Registers used:
  3732 ;;		wreg, fsr2l, fsr2h, status,2, status,0, tblptrl, tblptrh, tblptru, prodl, prodh
  3733 ;; Tracked objects:
  3734 ;;		On entry : 0/0
  3735 ;;		On exit  : 0/0
  3736 ;;		Unchanged: 0/0
  3737 ;; Data sizes:     COMRAM   BANK0   BANK1   BANK2   BANK3   BANK4   BANK5   BANK6   BANK7   BANK8   BANK9  BANK10  BANK1
      +1  BANK12  BANK13  BANK14  BANK15
  3738 ;;      Params:         4       0       0       0       0       0       0       0       0       0       0       0       
      +0       0       0       0       0
  3739 ;;      Locals:         2       0       0       0       0       0       0       0       0       0       0       0       
      +0       0       0       0       0
  3740 ;;      Temps:          8       0       0       0       0       0       0       0       0       0       0       0       
      +0       0       0       0       0
  3741 ;;      Totals:        14       0       0       0       0       0       0       0       0       0       0       0       
      +0       0       0       0       0
  3742 ;;Total ram usage:       14 bytes
  3743 ;; Hardware stack levels used:    1
  3744 ;; This function calls:
  3745 ;;		Nothing
  3746 ;; This function is called by:
  3747 ;;		_main
  3748 ;; This function uses a non-reentrant model
  3749 ;;
  3750                           
  3751                           	psect	text14
  3752  00F452                     __ptext14:
  3753                           	opt stack 0
  3754  00F452                     _lcd_bitmap:
  3755                           	opt stack 30
  3756                           
  3757                           ;newmain.c: 211: uint8_t x, line;
  3758                           ;newmain.c: 212: for (line=0; line<line_size; line++){
  3759                           
  3760                           ;incstack = 0
  3761  00F452  6E05               	movwf	??_lcd_bitmap& (0+255),c
  3762  00F454  0E00               	movlw	0
  3763  00F456  6E0E               	movwf	lcd_bitmap@line,c
  3764  00F458  5005               	movf	??_lcd_bitmap& (0+255),w,c
  3765  00F45A  D043               	goto	l864
  3766  00F45C                     l854:
  3767                           
  3768                           ;newmain.c: 213: for (x=0; x<x_size; x++){
  3769  00F45C  6E05               	movwf	??_lcd_bitmap& (0+255),c
  3770  00F45E  0E00               	movlw	0
  3771  00F460  6E0D               	movwf	lcd_bitmap@x,c
  3772  00F462  5005               	movf	??_lcd_bitmap& (0+255),w,c
  3773  00F464  D039               	goto	l860
  3774  00F466                     l856:
  3775                           
  3776                           ;newmain.c: 214: lcd_buf[x+lcd_x+((line+lcd_line)*128)] = gfx[x+(line*x_size)];
  3777  00F466  500E               	movf	lcd_bitmap@line,w,c
  3778  00F468  0203               	mulwf	lcd_bitmap@x_size,c
  3779  00F46A  500D               	movf	lcd_bitmap@x,w,c
  3780  00F46C  6E05               	movwf	??_lcd_bitmap& (0+255),c
  3781  00F46E  6A06               	clrf	(??_lcd_bitmap+1)& (0+255),c
  3782  00F470  50F3               	movf	prodl,w,c
  3783  00F472  2605               	addwf	??_lcd_bitmap,f,c
  3784  00F474  50F4               	movf	prodh,w,c
  3785  00F476  2206               	addwfc	??_lcd_bitmap+1,f,c
  3786  00F478  C001  F007         	movff	lcd_bitmap@gfx,??_lcd_bitmap+2
  3787  00F47C  C002  F008         	movff	lcd_bitmap@gfx+1,??_lcd_bitmap+3
  3788  00F480  5005               	movf	??_lcd_bitmap,w,c
  3789  00F482  2607               	addwf	??_lcd_bitmap+2,f,c
  3790  00F484  5006               	movf	??_lcd_bitmap+1,w,c
  3791  00F486  2208               	addwfc	??_lcd_bitmap+3,f,c
  3792  00F488  C007  FFF6         	movff	??_lcd_bitmap+2,tblptrl
  3793  00F48C  C008  FFF7         	movff	??_lcd_bitmap+3,tblptrh
  3794  00F490  0E00               	movlw	low (__mediumconst shr (0+16))
  3795  00F492  6EF8               	movwf	tblptru,c
  3796  00F494  5019               	movf	_lcd_line,w,c
  3797  00F496  C00E  F009         	movff	lcd_bitmap@line,??_lcd_bitmap+4
  3798  00F49A  6A0A               	clrf	(??_lcd_bitmap+5)& (0+255),c
  3799  00F49C  2609               	addwf	??_lcd_bitmap+4,f,c
  3800  00F49E  0E00               	movlw	0
  3801  00F4A0  220A               	addwfc	??_lcd_bitmap+5,f,c
  3802  00F4A2  0E07               	movlw	7
  3803  00F4A4                     u205:
  3804  00F4A4  90D8               	bcf	status,0,c
  3805  00F4A6  3609               	rlcf	??_lcd_bitmap+4,f,c
  3806  00F4A8  360A               	rlcf	??_lcd_bitmap+5,f,c
  3807  00F4AA  2EE8               	decfsz	wreg,f,c
  3808  00F4AC  D7FB               	goto	u205
  3809  00F4AE  501A               	movf	_lcd_x,w,c
  3810  00F4B0  C00D  F00B         	movff	lcd_bitmap@x,??_lcd_bitmap+6
  3811  00F4B4  6A0C               	clrf	(??_lcd_bitmap+7)& (0+255),c
  3812  00F4B6  260B               	addwf	??_lcd_bitmap+6,f,c
  3813  00F4B8  0E00               	movlw	0
  3814  00F4BA  220C               	addwfc	??_lcd_bitmap+7,f,c
  3815  00F4BC  5009               	movf	??_lcd_bitmap+4,w,c
  3816  00F4BE  260B               	addwf	??_lcd_bitmap+6,f,c
  3817  00F4C0  500A               	movf	??_lcd_bitmap+5,w,c
  3818  00F4C2  220C               	addwfc	??_lcd_bitmap+7,f,c
  3819  00F4C4  0E80               	movlw	low _lcd_buf
  3820  00F4C6  240B               	addwf	??_lcd_bitmap+6,w,c
  3821  00F4C8  6ED9               	movwf	fsr2l,c
  3822  00F4CA  0E0B               	movlw	high _lcd_buf
  3823  00F4CC  200C               	addwfc	??_lcd_bitmap+7,w,c
  3824  00F4CE  6EDA               	movwf	fsr2h,c
  3825  00F4D0  0008               	tblrd		*
  3826  00F4D2  CFF5 FFDF          	movff	tablat,indf2
  3827  00F4D6  2A0D               	incf	lcd_bitmap@x,f,c
  3828  00F4D8                     l860:
  3829  00F4D8  5003               	movf	lcd_bitmap@x_size,w,c
  3830  00F4DA  5C0D               	subwf	lcd_bitmap@x,w,c
  3831  00F4DC  A0D8               	btfss	status,0,c
  3832  00F4DE  D7C3               	goto	l856
  3833  00F4E0  2A0E               	incf	lcd_bitmap@line,f,c
  3834  00F4E2                     l864:
  3835  00F4E2  5004               	movf	lcd_bitmap@line_size,w,c
  3836  00F4E4  5C0E               	subwf	lcd_bitmap@line,w,c
  3837  00F4E6  B0D8               	btfsc	status,0,c
  3838  00F4E8  0012               	return	
  3839  00F4EA  D7B8               	goto	l854
  3840  00F4EC                     __end_of_lcd_bitmap:
  3841                           	opt stack 0
  3842                           tblptru	equ	0xFF8
  3843                           tblptrh	equ	0xFF7
  3844                           tblptrl	equ	0xFF6
  3845                           tablat	equ	0xFF5
  3846                           prodh	equ	0xFF4
  3847                           prodl	equ	0xFF3
  3848                           postinc0	equ	0xFEE
  3849                           wreg	equ	0xFE8
  3850                           postdec1	equ	0xFE5
  3851                           fsr1h	equ	0xFE2
  3852                           fsr1l	equ	0xFE1
  3853                           indf2	equ	0xFDF
  3854                           fsr2h	equ	0xFDA
  3855                           fsr2l	equ	0xFD9
  3856                           status	equ	0xFD8
  3857                           tblptru	equ	0xFF8
  3858                           tblptrh	equ	0xFF7
  3859                           tblptrl	equ	0xFF6
  3860                           tablat	equ	0xFF5
  3861                           prodh	equ	0xFF4
  3862                           prodl	equ	0xFF3
  3863                           postinc0	equ	0xFEE
  3864                           wreg	equ	0xFE8
  3865                           postdec1	equ	0xFE5
  3866                           fsr1h	equ	0xFE2
  3867                           fsr1l	equ	0xFE1
  3868                           indf2	equ	0xFDF
  3869                           fsr2h	equ	0xFDA
  3870                           fsr2l	equ	0xFD9
  3871                           status	equ	0xFD8
  3872                           
  3873                           	psect	rparam
  3874  0000                     tblptru	equ	0xFF8
  3875                           tblptrh	equ	0xFF7
  3876                           tblptrl	equ	0xFF6
  3877                           tablat	equ	0xFF5
  3878                           prodh	equ	0xFF4
  3879                           prodl	equ	0xFF3
  3880                           postinc0	equ	0xFEE
  3881                           wreg	equ	0xFE8
  3882                           postdec1	equ	0xFE5
  3883                           fsr1h	equ	0xFE2
  3884                           fsr1l	equ	0xFE1
  3885                           indf2	equ	0xFDF
  3886                           fsr2h	equ	0xFDA
  3887                           fsr2l	equ	0xFD9
  3888                           status	equ	0xFD8


Data Sizes:
    Strings     166
    Constant    1466
    Data        0
    BSS         1026
    Persistent  0
    Stack       0

Auto Spaces:
    Space          Size  Autos    Used
    COMRAM          127     24      26
    BANK0           128      0       0
    BANK1           256      0       0
    BANK2           256      0       0
    BANK3           256      0       0
    BANK4           256      0       0
    BANK5           256      0       0
    BANK6           256      0       0
    BANK7           256      0       0
    BANK8           256      0       0
    BANK9           256      0       0
    BANK10          256      0       0
    BANK11          256      0       0
    BANK12          256      0       0
    BANK13          256      0       0
    BANK14          256      0       0
    BANK15          128      0       0

Pointer List with Targets:

    memset@p1	PTR void  size(2) Largest target is 1024
		 -> lcd_buf(BIGRAM[1024]), 

    memset@p	PTR unsigned char  size(2) Largest target is 1024
		 -> lcd_buf(BIGRAM[1024]), 

    lcd_puts@s	PTR unsigned char  size(2) Largest target is 16
		 -> STR_19(CODE[12]), STR_18(CODE[14]), STR_17(CODE[10]), STR_16(CODE[10]), 
		 -> STR_14(CODE[8]), STR_13(CODE[10]), STR_11(CODE[7]), STR_10(CODE[8]), 
		 -> STR_9(CODE[6]), STR_8(CODE[8]), STR_7(CODE[6]), STR_6(CODE[3]), 
		 -> STR_5(CODE[4]), STR_4(CODE[6]), STR_3(CODE[16]), STR_2(CODE[15]), 
		 -> STR_1(CODE[13]), 

    lcd_puts_large@s	PTR unsigned char  size(2) Largest target is 6
		 -> STR_15(CODE[6]), STR_12(CODE[4]), 

    sp__memset	PTR void  size(2) Largest target is 1024
		 -> lcd_buf(BIGRAM[1024]), 

    lcd_bitmap@gfx	PTR unsigned char  size(2) Largest target is 762
		 -> se_logo(CODE[762]), 


Critical Paths under _main in COMRAM

    _main->_lcd_puts
    _lcd_refresh->_spi
    _lcd_puts_large->_lcd_put_large
    _lcd_put_large->___wmul
    _lcd_puts->_lcd_put
    _lcd_put->___wmul
    _lcd_init->_delay_ms
    _lcd_clear->_memset

Critical Paths under _main in BANK0

    None.

Critical Paths under _main in BANK1

    None.

Critical Paths under _main in BANK2

    None.

Critical Paths under _main in BANK3

    None.

Critical Paths under _main in BANK4

    None.

Critical Paths under _main in BANK5

    None.

Critical Paths under _main in BANK6

    None.

Critical Paths under _main in BANK7

    None.

Critical Paths under _main in BANK8

    None.

Critical Paths under _main in BANK9

    None.

Critical Paths under _main in BANK10

    None.

Critical Paths under _main in BANK11

    None.

Critical Paths under _main in BANK12

    None.

Critical Paths under _main in BANK13

    None.

Critical Paths under _main in BANK14

    None.

Critical Paths under _main in BANK15

    None.

Call Graph Tables:

 ---------------------------------------------------------------------------------
 (Depth) Function   	        Calls       Base Space   Used Autos Params    Refs
 ---------------------------------------------------------------------------------
 (0) _main                                                 8     3      5    4166
                                             16 COMRAM     8     3      5
                           _delay_ms
                         _lcd_bitmap
                          _lcd_clear
                         _lcd_cursor
                           _lcd_init
                            _lcd_put
                           _lcd_puts
                     _lcd_puts_large
                        _lcd_refresh
                      _platform_init
 ---------------------------------------------------------------------------------
 (1) _platform_init                                        0     0      0       0
 ---------------------------------------------------------------------------------
 (1) _lcd_refresh                                          6     6      0     120
                                              1 COMRAM     6     6      0
                                _spi
 ---------------------------------------------------------------------------------
 (1) _lcd_puts_large                                       2     0      2     599
                                             12 COMRAM     2     0      2
                      _lcd_put_large
 ---------------------------------------------------------------------------------
 (2) _lcd_put_large                                        6     6      0     483
                                              6 COMRAM     6     6      0
                             ___wmul
 ---------------------------------------------------------------------------------
 (1) _lcd_puts                                             2     0      2    1184
                                             14 COMRAM     2     0      2
                            _lcd_put
 ---------------------------------------------------------------------------------
 (2) _lcd_put                                              8     8      0     423
                                              6 COMRAM     8     8      0
                             ___wmul
 ---------------------------------------------------------------------------------
 (3) ___wmul                                               6     2      4     363
                                              0 COMRAM     6     2      4
 ---------------------------------------------------------------------------------
 (1) _lcd_init                                             0     0      0     346
                           _delay_ms
                                _spi
 ---------------------------------------------------------------------------------
 (2) _spi                                                  1     1      0      15
                                              0 COMRAM     1     1      0
 ---------------------------------------------------------------------------------
 (2) _delay_ms                                             5     3      2     331
                                              0 COMRAM     5     3      2
 ---------------------------------------------------------------------------------
 (1) _lcd_cursor                                           2     1      1     675
                                              0 COMRAM     2     1      1
 ---------------------------------------------------------------------------------
 (1) _lcd_clear                                            0     0      0     194
                             _memset
 ---------------------------------------------------------------------------------
 (2) _memset                                               8     2      6     194
                                              0 COMRAM     8     2      6
 ---------------------------------------------------------------------------------
 (1) _lcd_bitmap                                          14    10      4     279
                                              0 COMRAM    14    10      4
 ---------------------------------------------------------------------------------
 Estimated maximum stack depth 3
 ---------------------------------------------------------------------------------

 Call Graph Graphs:

 _main (ROOT)
   _delay_ms
   _lcd_bitmap
   _lcd_clear
     _memset
   _lcd_cursor
   _lcd_init
     _delay_ms
     _spi
   _lcd_put
     ___wmul
   _lcd_puts
     _lcd_put
       ___wmul
   _lcd_puts_large
     _lcd_put_large
       ___wmul
   _lcd_refresh
     _spi
   _platform_init

 Address spaces:
Name               Size   Autos  Total    Cost      Usage
BIGRAM             F7F      0     400      37       25.8%
EEDATA             400      0       0       0        0.0%
BITBANK14          100      0       0      32        0.0%
BANK14             100      0       0      33        0.0%
BITBANK13          100      0       0      30        0.0%
BANK13             100      0       0      31        0.0%
BITBANK12          100      0       0      28        0.0%
BANK12             100      0       0      29        0.0%
BITBANK11          100      0       0      26        0.0%
BANK11             100      0       0      27        0.0%
BITBANK10          100      0       0      24        0.0%
BANK10             100      0       0      25        0.0%
BITBANK9           100      0       0      22        0.0%
BANK9              100      0       0      23        0.0%
BITBANK8           100      0       0      20        0.0%
BANK8              100      0       0      21        0.0%
BITBANK7           100      0       0      18        0.0%
BANK7              100      0       0      19        0.0%
BITBANK6           100      0       0      16        0.0%
BANK6              100      0       0      17        0.0%
BITBANK5           100      0       0      14        0.0%
BANK5              100      0       0      15        0.0%
BITBANK4           100      0       0      12        0.0%
BANK4              100      0       0      13        0.0%
BITBANK3           100      0       0      10        0.0%
BANK3              100      0       0      11        0.0%
BITBANK2           100      0       0       8        0.0%
BANK2              100      0       0       9        0.0%
BITBANK1           100      0       0       6        0.0%
BANK1              100      0       0       7        0.0%
BITBANK15           80      0       0      35        0.0%
BANK15              80      0       0      36        0.0%
BITBANK0            80      0       0       4        0.0%
BANK0               80      0       0       5        0.0%
BITCOMRAM           7F      0       0       0        0.0%
COMRAM              7F     18      1A       1       20.5%
BITSFR               0      0       0      40        0.0%
SFR                  0      0       0      40        0.0%
STACK                0      0       0       2        0.0%
NULL                 0      0       0       0        0.0%
ABS                  0      0      1A      34        0.0%
DATA                 0      0     41A       3        0.0%
CODE                 0      0       0       0        0.0%


Microchip Technology PIC18 Macro Assembler V1.31 build 56723 
Symbol Table                                                                                   Sat Jun 28 18:04:16 2014

           ?_lcd_refresh 0001              _SSPSTATbits 000FC7                       l43 F1F0  
                     l81 F26E                       l57 F5E8                       l90 F350  
                     u55 F552                       u75 F58E      ___wmul@multiplicand 0003  
            lcd_bitmap@x 000D                      l804 F5D0                      l816 F5F2  
                    l808 F5DA                      l834 F6B2                      l860 F4D8  
                    l764 F286                      l780 F500                      l854 F45C  
                    l870 F2DC                      l856 F466                      l864 F4E2  
                    l768 F296                      l848 F25C                      l786 F50A  
                    l882 F2C2                      l874 F2F4                      l948 F37A  
                    l878 F2AA                      l994 F7D4                      l996 F7DA  
                    u205 F4A4                      u125 F634                      u145 F67A  
                    u307 F262                      u165 F6EC                      u185 F728  
                    u275 F382   __end_of_lcd_puts_large F30C                      _spi F1E6  
                    wreg 000FE8              lcd_cursor@x 0002             __CFG_LVP$OFF 000000  
         ?_lcd_put_large 0001             __CFG_WDT$OFF 000000                     l1040 F978  
                   l1042 F98C                     l1038 F946                     ?_spi 0001  
                   STR_1 FF86                     STR_2 FF69                     STR_3 FF59  
                   STR_4 FFEE                     STR_5 FFF8                     STR_6 FFFC  
                   STR_7 FFDC                     STR_8 FFCD                     STR_9 FFE8  
                   _main F754                     fsr1h 000FE2                     fsr2h 000FDA  
                   fsr1l 000FE1                     indf2 000FDF                     fsr2l 000FD9  
                   prodh 000FF4                     prodl 000FF3                     start 0000  
          lcd_bitmap@gfx 0001                    ??_spi 0001             lcd_refresh@x 0006  
           lcd_refresh@y 0007             main@lcd_mode 0018                    ?_main 0011  
                  STR_10 FFBD                    STR_11 FFD5                    STR_12 FFF4  
                  STR_13 FF9F                    STR_14 FFC5                    STR_15 FFE2  
                  STR_16 FFA9                    STR_17 FFB3                    STR_18 FF78  
                  STR_19 FF93                    _TRISA 000F92                    _TRISB 000F93  
                  _TRISC 000F94          ?_lcd_puts_large 000D          __end_of_lcd_put F5BA  
                  _lcd_x 001A          __end_of_se_logo FF59                    tablat 000FF5  
                  status 000FD8           lcd_bitmap@line 000E           __CFG_MCLRE$OFF 000000  
        __initialization F234             __end_of_main F99E                   ??_main 0016  
  __end_of_platform_init F234            __activetblptr 000003          ??_lcd_put_large 0007  
                 _SSPBUF 000FC9         __end_of_delay_ms F27C         __end_of_lcd_font FB7F  
       __end_of_lcd_init F452         __end_of_lcd_puts F2DA                   ___wmul F30C  
   __size_of_lcd_refresh 007A                   _memset F27C                   clear_0 F23C  
              ??_lcd_put 0007     __end_of_lcd_font_big FC5F             __mediumconst F99E  
                 tblptrh 000FF7                   tblptrl 000FF6                   tblptru 000FF8  
             __accesstop 0080  __end_of__initialization F24C          __CFG_PBADEN$OFF 000000  
         lcd_cursor@line 0001           __pcstackCOMRAM 0001       __size_of_lcd_clear 001E  
                ?___wmul 0001         ??_lcd_puts_large 000F                  ?_memset 0001  
             _lcd_bitmap F452                ?_delay_ms 0001               _lcd_cursor F1D8  
              ?_lcd_init 0001                ?_lcd_puts 000F                  __Hparam 0000  
                __Lparam 0000        __end_of_lcd_clear F216          __size_of___wmul 003A  
                __pcinit F234          __size_of_memset 002C                  __ramtop 1000  
                __ptext0 F754                  __ptext1 F216                  __ptext2 F346  
                __ptext3 F2DA                  __ptext4 F5BA                  __ptext5 F2A8  
                __ptext6 F4EC                  __ptext7 F30C                  __ptext8 F3C0  
                __ptext9 F1E6                  _lcd_buf 0B80                  _lcd_put F4EC  
           __size_of_spi 0012                  _se_logo FC5F               ??_delay_ms 0003  
             ??_lcd_init 0006               ??_lcd_puts 0011     end_of_initialization F24C  
         lcd_put_large@c 000B           lcd_put_large@j 000C                  memset@c 0003  
                memset@n 0005                  memset@p 0007                  spi@data 0001  
           _lcd_font_big FB7F                  postdec1 000FE5                  postinc0 000FEE  
       lcd_bitmap@x_size 0003              ?_lcd_bitmap 0001              ?_lcd_cursor 0001  
  __end_of_lcd_put_large F754   __size_of_platform_init 001E            ??_lcd_refresh 0002  
         __end_of___wmul F346           __end_of_memset F2A8      start_initialization F234  
            __end_of_spi F1F8         __CFG_OSC$INTIO67 000000      __size_of_lcd_bitmap 009A  
    __size_of_lcd_cursor 000E                 ??___wmul 0005                 ??_memset 0007  
    __end_of_lcd_refresh F3C0              __pbssBIGRAM 0B80            _platform_init F216  
            __pbssCOMRAM 0019      __end_of__stringdata FFFF        __size_of_delay_ms 002A  
      __size_of_lcd_init 0092        __size_of_lcd_puts 0032            __pmediumconst F99E  
              _lcd_clear F1F8                 ?_lcd_put 0001           ?_platform_init 0001  
         ___wmul@product 0005                 _LATBbits 000F8A                delay_ms@j 0004  
              delay_ms@n 0001                 _PIR1bits 000F9E              _lcd_refresh F346  
             ?_lcd_clear 0001              __stringdata FF59        ___wmul@multiplier 0001  
           ??_lcd_bitmap 0005                lcd_puts@s 000F             ??_lcd_cursor 0002  
__size_of_lcd_puts_large 0032                 __Hrparam 0000                 __Lrparam 0000  
     __end_of_lcd_bitmap F4EC       __end_of_lcd_cursor F1E6          ??_platform_init 0001  
       __size_of_lcd_put 00CE                 _delay_ms F252                 __ptext10 F252  
               __ptext11 F1D8                 __ptext12 F1F8                 __ptext13 F27C  
               __ptext14 F452                 _lcd_font F99F                 _lcd_line 0019  
               _lcd_init F3C0                 _lcd_puts F2A8            __size_of_main 024A  
    lcd_bitmap@line_size 0004   __size_of_lcd_put_large 019A                 main@argc 0011  
            ??_lcd_clear 0009                 main@argv 0013                 lcd_put@c 000D  
               lcd_put@j 000E              _OSCTUNEbits 000F9B                 memset@p1 0001  
             _OSCCONbits 000FD3          lcd_puts_large@s 000D           _lcd_puts_large F2DA  
            _SSPCON1bits 000FC6            _lcd_put_large F5BA  
